EXPORTS 
	??_R0?AV<lambda_fe68efc729bc7c1d7a5ab8f29f62bec5>@@@8 	 DATA
	??_R0?AV?$DataConverter@G@Avian@Infineon@@@8 	 DATA
	??_R0?AV?$IFrameListener@VIFrame@@@@@8 	 DATA
	??_R0?AV?$IPort@E@HW@Avian@Infineon@@@8 	 DATA
	??_R0?AV?$IReadPort@E@HW@Avian@Infineon@@@8 	 DATA
	??_R0?AV?$IReadPort@G@HW@Avian@Infineon@@@8 	 DATA
	??_R0?AV?$StrataControlPortImpl@V?$IPort@E@HW@Avian@Infineon@@@Internal@Avian@Infineon@@@8 	 DATA
	??_R0?AV?$StrataControlPortImpl@VIControlPort@HW@Avian@Infineon@@@Internal@Avian@Infineon@@@8 	 DATA
	??_R0?AV?$_Func_base@XAEAV?$list@UTimer@ModelBGT60TRxxC@TimingModel@Avian@Infineon@@V?$allocator@UTimer@ModelBGT60TRxxC@TimingModel@Avian@Infineon@@@std@@@std@@@std@@@8 	 DATA
	??_R0?AV?$_Func_base@XI@std@@@8 	 DATA
	??_R0?AV?$_Func_impl_no_alloc@V<lambda_fe68efc729bc7c1d7a5ab8f29f62bec5>@@XI@std@@@8 	 DATA
	??_R0?AV?$_Iosb@H@std@@@8 	 DATA
	??_R0?AV?$basic_ios@DU?$char_traits@D@std@@@std@@@8 	 DATA
	??_R0?AV?$basic_iostream@DU?$char_traits@D@std@@@std@@@8 	 DATA
	??_R0?AV?$basic_istream@DU?$char_traits@D@std@@@std@@@8 	 DATA
	??_R0?AV?$basic_ostream@DU?$char_traits@D@std@@@std@@@8 	 DATA
	??_R0?AV?$basic_ostringstream@DU?$char_traits@D@std@@V?$allocator@D@2@@std@@@8 	 DATA
	??_R0?AV?$basic_streambuf@DU?$char_traits@D@std@@@std@@@8 	 DATA
	??_R0?AV?$basic_stringbuf@DU?$char_traits@D@std@@V?$allocator@D@2@@std@@@8 	 DATA
	??_R0?AV?$basic_stringstream@DU?$char_traits@D@std@@V?$allocator@D@2@@std@@@8 	 DATA
	??_R0?AVDriverError@Avian@Infineon@@@8 	 DATA
	??_R0?AVDummyPort@Avian@Infineon@@@8 	 DATA
	??_R0?AVEConnection@@@8 	 DATA
	??_R0?AVEException@@@8 	 DATA
	??_R0?AVEGenericException@@@8 	 DATA
	??_R0?AVENarrowCast@@@8 	 DATA
	??_R0?AVEProtocolFunction@@@8 	 DATA
	??_R0?AVError@Parameter_Extractor@Avian@Infineon@@@8 	 DATA
	??_R0?AVIComponent@@@8 	 DATA
	??_R0?AVIControlPort@HW@Avian@Infineon@@@8 	 DATA
	??_R0?AVIRadarAvian@@@8 	 DATA
	??_R0?AVModelBGT60TR11D@TimingModel@Avian@Infineon@@@8 	 DATA
	??_R0?AVModelBGT60TRxxC@TimingModel@Avian@Infineon@@@8 	 DATA
	??_R0?AVModelBGT60TRxxD@TimingModel@Avian@Infineon@@@8 	 DATA
	??_R0?AVSequenceParameters11D@TimingModel@Avian@Infineon@@@8 	 DATA
	??_R0?AVSequenceParameters@TimingModel@Avian@Infineon@@@8 	 DATA
	??_R0?AVSequenceParametersD@TimingModel@Avian@Infineon@@@8 	 DATA
	??_R0?AVStrataPort@Avian@Infineon@@@8 	 DATA
	??_R0?AVbad_alloc@std@@@8 	 DATA
	??_R0?AVbad_array_new_length@std@@@8 	 DATA
	??_R0?AVexception@std@@@8 	 DATA
	??_R0?AVinvalid_argument@std@@@8 	 DATA
	??_R0?AVios_base@std@@@8 	 DATA
	??_R0?AVlogic_error@std@@@8 	 DATA
	??_R0?AVout_of_range@std@@@8 	 DATA
	??_R0?AVruntime_error@std@@@8 	 DATA
	?s_properties@?1??get_properties@?$StrataControlPortImpl@V?$IPort@E@HW@Avian@Infineon@@@Internal@Avian@Infineon@@UEBAAEBUProperties@IControlPort@HW@45@XZ@4U67845@A 	 DATA
	?s_properties@?1??get_properties@?$StrataControlPortImpl@VIControlPort@HW@Avian@Infineon@@@Internal@Avian@Infineon@@UEBAAEBUProperties@IControlPort@HW@45@XZ@4U67845@A 	 DATA
	??$?0$$CBV?$basic_string@DU?$char_traits@D@std@@V?$allocator@D@2@@std@@UAddress@?$NamedMemory@GI@@$0A@@?$pair@$$CBV?$basic_string@DU?$char_traits@D@std@@V?$allocator@D@2@@std@@UAddress@?$NamedMemory@GI@@@std@@QEAA@AEBV?$basic_string@DU?$char_traits@D@std@@V?$allocator@D@2@@1@AEBUAddress@?$NamedMemory@GI@@@Z
	??$?0$$QEAE$$Z$$V@?$pair@$$CBEI@std@@QEAA@Upiecewise_construct_t@1@V?$tuple@$$QEAE@1@V?$tuple@$$V@1@@Z
	??$?0$$V@?$_Compressed_pair@U?$default_delete@VDriver@Avian@Infineon@@@std@@PEAVDriver@Avian@Infineon@@$00@std@@QEAA@U_Zero_then_variadic_args_t@1@@Z
	??$?0$$V@?$_Compressed_pair@U?$default_delete@VModelBGT60TRxxC@TimingModel@Avian@Infineon@@@std@@PEAVModelBGT60TRxxC@TimingModel@Avian@Infineon@@$00@std@@QEAA@U_Zero_then_variadic_args_t@1@@Z
	??$?0$$V@?$_Compressed_pair@U?$default_delete@VSequenceParameters@TimingModel@Avian@Infineon@@@std@@PEAVSequenceParameters@TimingModel@Avian@Infineon@@$00@std@@QEAA@U_Zero_then_variadic_args_t@1@@Z
	??$?0$$V@?$_Compressed_pair@V?$allocator@D@std@@V?$_String_val@U?$_Simple_types@D@std@@@2@$00@std@@QEAA@U_Zero_then_variadic_args_t@1@@Z
	??$?0$$V@?$_Compressed_pair@V?$allocator@I@std@@V?$_Vector_val@U?$_Simple_types@I@std@@@2@$00@std@@QEAA@U_Zero_then_variadic_args_t@1@@Z
	??$?0$$V@?$_Compressed_pair@V?$allocator@U?$_List_node@UTimer@ModelBGT60TRxxC@TimingModel@Avian@Infineon@@PEAX@std@@@std@@V?$_List_val@U?$_List_simple_types@UTimer@ModelBGT60TRxxC@TimingModel@Avian@Infineon@@@std@@@2@$00@std@@QEAA@U_Zero_then_variadic_args_t@1@@Z
	??$?0$$V@?$_Compressed_pair@V?$allocator@U?$_Tree_node@U?$pair@$$CBEI@std@@PEAX@std@@@std@@V?$_Tree_val@U?$_Tree_simple_types@U?$pair@$$CBEI@std@@@std@@@2@$00@std@@QEAA@U_Zero_then_variadic_args_t@1@@Z
	??$?0$$V@?$_Compressed_pair@V?$allocator@U?$_Tree_node@U?$pair@$$CBEURegister_Modification@Driver@Avian@Infineon@@@std@@PEAX@std@@@std@@V?$_Tree_val@U?$_Tree_simple_types@U?$pair@$$CBEURegister_Modification@Driver@Avian@Infineon@@@std@@@std@@@2@$00@std@@QEAA@U_Zero_then_variadic_args_t@1@@Z
	??$?0$$V@?$_Compressed_pair@V?$allocator@U?$_Tree_node@U?$pair@$$CBIV?$vector@MV?$allocator@M@std@@@std@@@std@@PEAX@std@@@std@@V?$_Tree_val@U?$_Tree_simple_types@U?$pair@$$CBIV?$vector@MV?$allocator@M@std@@@std@@@std@@@std@@@2@$00@std@@QEAA@U_Zero_then_variadic_args_t@1@@Z
	??$?0$$V@?$_Compressed_pair@V?$allocator@U?$_Tree_node@U?$pair@$$CBV?$basic_string@DU?$char_traits@D@std@@V?$allocator@D@2@@std@@UAddress@?$NamedMemory@GI@@@std@@PEAX@std@@@std@@V?$_Tree_val@U?$_Tree_simple_types@U?$pair@$$CBV?$basic_string@DU?$char_traits@D@std@@V?$allocator@D@2@@std@@UAddress@?$NamedMemory@GI@@@std@@@std@@@2@$00@std@@QEAA@U_Zero_then_variadic_args_t@1@@Z
	??$?0$$V@?$_Compressed_pair@V?$allocator@UStateInfo@StateSequence@TimingModel@Avian@Infineon@@@std@@V?$_Vector_val@U?$_Simple_types@UStateInfo@StateSequence@TimingModel@Avian@Infineon@@@std@@@2@$00@std@@QEAA@U_Zero_then_variadic_args_t@1@@Z
	??$?0$00@DataSettingsBgtRadar_t@@QEAA@PEAY101$$CBGG@Z
	??$?0AEAIAEAG$0A@@?$pair@$$CBIV?$vector@MV?$allocator@M@std@@@std@@@std@@QEAA@AEAIAEAG@Z
	??$?0AEAIAEAG@?$_Tree_temp_node@V?$allocator@U?$_Tree_node@U?$pair@$$CBIV?$vector@MV?$allocator@M@std@@@std@@@std@@PEAX@std@@@std@@@std@@QEAA@AEAV?$allocator@U?$_Tree_node@U?$pair@$$CBIV?$vector@MV?$allocator@M@std@@@std@@@std@@PEAX@std@@@1@PEAU?$_Tree_node@U?$pair@$$CBIV?$vector@MV?$allocator@M@std@@@std@@@std@@PEAX@1@AEAIAEAG@Z
	??$?0AEANAEAN$0A@@?$pair@NN@std@@QEAA@AEAN0@Z
	??$?0AEAPEAU?$_Tree_node@U?$pair@$$CBEI@std@@PEAX@std@@_N$0A@@?$pair@PEAU?$_Tree_node@U?$pair@$$CBEI@std@@PEAX@std@@_N@std@@QEAA@AEAPEAU?$_Tree_node@U?$pair@$$CBEI@std@@PEAX@1@$$QEA_N@Z
	??$?0AEAPEAU?$_Tree_node@U?$pair@$$CBIV?$vector@MV?$allocator@M@std@@@std@@@std@@PEAX@std@@_N$0A@@?$pair@PEAU?$_Tree_node@U?$pair@$$CBIV?$vector@MV?$allocator@M@std@@@std@@@std@@PEAX@std@@_N@std@@QEAA@AEAPEAU?$_Tree_node@U?$pair@$$CBIV?$vector@MV?$allocator@M@std@@@std@@@std@@PEAX@1@$$QEA_N@Z
	??$?0AEAPEAVDriver@Avian@Infineon@@@?$_Compressed_pair@U?$default_delete@VDriver@Avian@Infineon@@@std@@PEAVDriver@Avian@Infineon@@$00@std@@QEAA@U_Zero_then_variadic_args_t@1@AEAPEAVDriver@Avian@Infineon@@@Z
	??$?0AEAPEAVModelBGT60TR11D@TimingModel@Avian@Infineon@@@?$_Compressed_pair@U?$default_delete@VModelBGT60TR11D@TimingModel@Avian@Infineon@@@std@@PEAVModelBGT60TR11D@TimingModel@Avian@Infineon@@$00@std@@QEAA@U_Zero_then_variadic_args_t@1@AEAPEAVModelBGT60TR11D@TimingModel@Avian@Infineon@@@Z
	??$?0AEAPEAVModelBGT60TRxxC@TimingModel@Avian@Infineon@@@?$_Compressed_pair@U?$default_delete@VModelBGT60TRxxC@TimingModel@Avian@Infineon@@@std@@PEAVModelBGT60TRxxC@TimingModel@Avian@Infineon@@$00@std@@QEAA@U_Zero_then_variadic_args_t@1@AEAPEAVModelBGT60TRxxC@TimingModel@Avian@Infineon@@@Z
	??$?0AEAPEAVModelBGT60TRxxD@TimingModel@Avian@Infineon@@@?$_Compressed_pair@U?$default_delete@VModelBGT60TRxxD@TimingModel@Avian@Infineon@@@std@@PEAVModelBGT60TRxxD@TimingModel@Avian@Infineon@@$00@std@@QEAA@U_Zero_then_variadic_args_t@1@AEAPEAVModelBGT60TRxxD@TimingModel@Avian@Infineon@@@Z
	??$?0AEAPEAVSequenceParameters11D@TimingModel@Avian@Infineon@@@?$_Compressed_pair@U?$default_delete@VSequenceParameters11D@TimingModel@Avian@Infineon@@@std@@PEAVSequenceParameters11D@TimingModel@Avian@Infineon@@$00@std@@QEAA@U_Zero_then_variadic_args_t@1@AEAPEAVSequenceParameters11D@TimingModel@Avian@Infineon@@@Z
	??$?0AEAPEAVSequenceParameters@TimingModel@Avian@Infineon@@@?$_Compressed_pair@U?$default_delete@VSequenceParameters@TimingModel@Avian@Infineon@@@std@@PEAVSequenceParameters@TimingModel@Avian@Infineon@@$00@std@@QEAA@U_Zero_then_variadic_args_t@1@AEAPEAVSequenceParameters@TimingModel@Avian@Infineon@@@Z
	??$?0AEAPEAVSequenceParametersD@TimingModel@Avian@Infineon@@@?$_Compressed_pair@U?$default_delete@VSequenceParametersD@TimingModel@Avian@Infineon@@@std@@PEAVSequenceParametersD@TimingModel@Avian@Infineon@@$00@std@@QEAA@U_Zero_then_variadic_args_t@1@AEAPEAVSequenceParametersD@TimingModel@Avian@Infineon@@@Z
	??$?0AEAV<lambda_fe68efc729bc7c1d7a5ab8f29f62bec5>@@$0A@@?$_Func_impl_no_alloc@V<lambda_fe68efc729bc7c1d7a5ab8f29f62bec5>@@XI@std@@QEAA@AEAV<lambda_fe68efc729bc7c1d7a5ab8f29f62bec5>@@@Z
	??$?0AEAV<lambda_fe68efc729bc7c1d7a5ab8f29f62bec5>@@$0A@@?$function@$$A6AXI@Z@std@@QEAA@AEAV<lambda_fe68efc729bc7c1d7a5ab8f29f62bec5>@@@Z
	??$?0AEAV?$allocator@D@std@@$$V@?$_Compressed_pair@V?$allocator@D@std@@V?$_String_val@U?$_Simple_types@D@std@@@2@$00@std@@QEAA@U_One_then_variadic_args_t@1@AEAV?$allocator@D@1@@Z
	??$?0AEAY0BB@$$CBDAEAY0M@$$CBDAEBG@?$_List_node_emplace_op2@V?$allocator@U?$_List_node@UTimer@ModelBGT60TRxxC@TimingModel@Avian@Infineon@@PEAX@std@@@std@@@std@@QEAA@AEAV?$allocator@U?$_List_node@UTimer@ModelBGT60TRxxC@TimingModel@Avian@Infineon@@PEAX@std@@@1@AEAY0BB@$$CBDAEAY0M@$$CBDAEBG@Z
	??$?0AEAY0BC@$$CBDAEAY04$$CBDAEBG@?$_List_node_emplace_op2@V?$allocator@U?$_List_node@UTimer@ModelBGT60TRxxC@TimingModel@Avian@Infineon@@PEAX@std@@@std@@@std@@QEAA@AEAV?$allocator@U?$_List_node@UTimer@ModelBGT60TRxxC@TimingModel@Avian@Infineon@@PEAX@std@@@1@AEAY0BC@$$CBDAEAY04$$CBDAEBG@Z
	??$?0AEAY0BF@$$CBDAEAY04$$CBDAEBG@?$_List_node_emplace_op2@V?$allocator@U?$_List_node@UTimer@ModelBGT60TRxxC@TimingModel@Avian@Infineon@@PEAX@std@@@std@@@std@@QEAA@AEAV?$allocator@U?$_List_node@UTimer@ModelBGT60TRxxC@TimingModel@Avian@Infineon@@PEAX@std@@@1@AEAY0BF@$$CBDAEAY04$$CBDAEBG@Z
	??$?0AEAY0L@$$CBDAEAY09$$CBDAEBG@?$_List_node_emplace_op2@V?$allocator@U?$_List_node@UTimer@ModelBGT60TRxxC@TimingModel@Avian@Infineon@@PEAX@std@@@std@@@std@@QEAA@AEAV?$allocator@U?$_List_node@UTimer@ModelBGT60TRxxC@TimingModel@Avian@Infineon@@PEAX@std@@@1@AEAY0L@$$CBDAEAY09$$CBDAEBG@Z
	??$?0AEAY0O@$$CBDAEAY07$$CBDAEBG@?$_List_node_emplace_op2@V?$allocator@U?$_List_node@UTimer@ModelBGT60TRxxC@TimingModel@Avian@Infineon@@PEAX@std@@@std@@@std@@QEAA@AEAV?$allocator@U?$_List_node@UTimer@ModelBGT60TRxxC@TimingModel@Avian@Infineon@@PEAX@std@@@1@AEAY0O@$$CBDAEAY07$$CBDAEBG@Z
	??$?0AEBE$$Z$$V@?$pair@$$CBEI@std@@QEAA@Upiecewise_construct_t@1@V?$tuple@AEBE@1@V?$tuple@$$V@1@@Z
	??$?0AEBE$$Z$$V@?$pair@$$CBEURegister_Modification@Driver@Avian@Infineon@@@std@@QEAA@Upiecewise_construct_t@1@V?$tuple@AEBE@1@V?$tuple@$$V@1@@Z
	??$?0AEBE$0A@@?$tuple@AEBE@std@@QEAA@AEBE@Z
	??$?0AEBE@?$_Tuple_val@AEBE@std@@QEAA@AEBE@Z
	??$?0AEBNN$0A@@?$pair@NN@std@@QEAA@AEBN$$QEAN@Z
	??$?0AEBQEAU?$_Tree_node@U?$pair@$$CBEI@std@@PEAX@std@@_N$0A@@?$pair@PEAU?$_Tree_node@U?$pair@$$CBEI@std@@PEAX@std@@_N@std@@QEAA@AEBQEAU?$_Tree_node@U?$pair@$$CBEI@std@@PEAX@1@$$QEA_N@Z
	??$?0AEBQEAU?$_Tree_node@U?$pair@$$CBEURegister_Modification@Driver@Avian@Infineon@@@std@@PEAX@std@@_N$0A@@?$pair@PEAU?$_Tree_node@U?$pair@$$CBEURegister_Modification@Driver@Avian@Infineon@@@std@@PEAX@std@@_N@std@@QEAA@AEBQEAU?$_Tree_node@U?$pair@$$CBEURegister_Modification@Driver@Avian@Infineon@@@std@@PEAX@1@$$QEA_N@Z
	??$?0AEBU?$less@E@std@@U_Zero_then_variadic_args_t@1@@?$_Compressed_pair@U?$less@E@std@@V?$_Compressed_pair@V?$allocator@U?$_Tree_node@U?$pair@$$CBEI@std@@PEAX@std@@@std@@V?$_Tree_val@U?$_Tree_simple_types@U?$pair@$$CBEI@std@@@std@@@2@$00@2@$00@std@@QEAA@U_One_then_variadic_args_t@1@AEBU?$less@E@1@$$QEAU_Zero_then_variadic_args_t@1@@Z
	??$?0AEBU?$less@E@std@@U_Zero_then_variadic_args_t@1@@?$_Compressed_pair@U?$less@E@std@@V?$_Compressed_pair@V?$allocator@U?$_Tree_node@U?$pair@$$CBEURegister_Modification@Driver@Avian@Infineon@@@std@@PEAX@std@@@std@@V?$_Tree_val@U?$_Tree_simple_types@U?$pair@$$CBEURegister_Modification@Driver@Avian@Infineon@@@std@@@std@@@2@$00@2@$00@std@@QEAA@U_One_then_variadic_args_t@1@AEBU?$less@E@1@$$QEAU_Zero_then_variadic_args_t@1@@Z
	??$?0AEBU?$less@I@std@@U_Zero_then_variadic_args_t@1@@?$_Compressed_pair@U?$less@I@std@@V?$_Compressed_pair@V?$allocator@U?$_Tree_node@U?$pair@$$CBIV?$vector@MV?$allocator@M@std@@@std@@@std@@PEAX@std@@@std@@V?$_Tree_val@U?$_Tree_simple_types@U?$pair@$$CBIV?$vector@MV?$allocator@M@std@@@std@@@std@@@std@@@2@$00@2@$00@std@@QEAA@U_One_then_variadic_args_t@1@AEBU?$less@I@1@$$QEAU_Zero_then_variadic_args_t@1@@Z
	??$?0AEBU?$less@V?$basic_string@DU?$char_traits@D@std@@V?$allocator@D@2@@std@@@std@@U_Zero_then_variadic_args_t@1@@?$_Compressed_pair@U?$less@V?$basic_string@DU?$char_traits@D@std@@V?$allocator@D@2@@std@@@std@@V?$_Compressed_pair@V?$allocator@U?$_Tree_node@U?$pair@$$CBV?$basic_string@DU?$char_traits@D@std@@V?$allocator@D@2@@std@@UAddress@?$NamedMemory@GI@@@std@@PEAX@std@@@std@@V?$_Tree_val@U?$_Tree_simple_types@U?$pair@$$CBV?$basic_string@DU?$char_traits@D@std@@V?$allocator@D@2@@std@@UAddress@?$NamedMemory@GI@@@std@@@std@@@2@$00@2@$00@std@@QEAA@U_One_then_variadic_args_t@1@AEBU?$less@V?$basic_string@DU?$char_traits@D@std@@V?$allocator@D@2@@std@@@1@$$QEAU_Zero_then_variadic_args_t@1@@Z
	??$?0AEBU?$pair@$$CBV?$basic_string@DU?$char_traits@D@std@@V?$allocator@D@2@@std@@UAddress@?$NamedMemory@GI@@@std@@@?$_Tree_temp_node@V?$allocator@U?$_Tree_node@U?$pair@$$CBV?$basic_string@DU?$char_traits@D@std@@V?$allocator@D@2@@std@@UAddress@?$NamedMemory@GI@@@std@@PEAX@std@@@std@@@std@@QEAA@AEAV?$allocator@U?$_Tree_node@U?$pair@$$CBV?$basic_string@DU?$char_traits@D@std@@V?$allocator@D@2@@std@@UAddress@?$NamedMemory@GI@@@std@@PEAX@std@@@1@PEAU?$_Tree_node@U?$pair@$$CBV?$basic_string@DU?$char_traits@D@std@@V?$allocator@D@2@@std@@UAddress@?$NamedMemory@GI@@@std@@PEAX@1@AEBU?$pair@$$CBV?$basic_string@DU?$char_traits@D@std@@V?$allocator@D@2@@std@@UAddress@?$NamedMemory@GI@@@1@@Z
	??$?0AEBUpiecewise_construct_t@std@@V?$tuple@$$QEAE@1@V?$tuple@$$V@1@@?$_Tree_temp_node@V?$allocator@U?$_Tree_node@U?$pair@$$CBEI@std@@PEAX@std@@@std@@@std@@QEAA@AEAV?$allocator@U?$_Tree_node@U?$pair@$$CBEI@std@@PEAX@std@@@1@PEAU?$_Tree_node@U?$pair@$$CBEI@std@@PEAX@1@AEBUpiecewise_construct_t@1@$$QEAV?$tuple@$$QEAE@1@$$QEAV?$tuple@$$V@1@@Z
	??$?0AEBUpiecewise_construct_t@std@@V?$tuple@AEBE@1@V?$tuple@$$V@1@@?$_Tree_temp_node@V?$allocator@U?$_Tree_node@U?$pair@$$CBEI@std@@PEAX@std@@@std@@@std@@QEAA@AEAV?$allocator@U?$_Tree_node@U?$pair@$$CBEI@std@@PEAX@std@@@1@PEAU?$_Tree_node@U?$pair@$$CBEI@std@@PEAX@1@AEBUpiecewise_construct_t@1@$$QEAV?$tuple@AEBE@1@$$QEAV?$tuple@$$V@1@@Z
	??$?0AEBUpiecewise_construct_t@std@@V?$tuple@AEBE@1@V?$tuple@$$V@1@@?$_Tree_temp_node@V?$allocator@U?$_Tree_node@U?$pair@$$CBEURegister_Modification@Driver@Avian@Infineon@@@std@@PEAX@std@@@std@@@std@@QEAA@AEAV?$allocator@U?$_Tree_node@U?$pair@$$CBEURegister_Modification@Driver@Avian@Infineon@@@std@@PEAX@std@@@1@PEAU?$_Tree_node@U?$pair@$$CBEURegister_Modification@Driver@Avian@Infineon@@@std@@PEAX@1@AEBUpiecewise_construct_t@1@$$QEAV?$tuple@AEBE@1@$$QEAV?$tuple@$$V@1@@Z
	??$?0AEBV<lambda_fe68efc729bc7c1d7a5ab8f29f62bec5>@@$0A@@?$_Func_impl_no_alloc@V<lambda_fe68efc729bc7c1d7a5ab8f29f62bec5>@@XI@std@@QEAA@AEBV<lambda_fe68efc729bc7c1d7a5ab8f29f62bec5>@@@Z
	??$?0AEBV?$allocator@D@std@@$$V@?$_Compressed_pair@V?$allocator@D@std@@V?$_String_val@U?$_Simple_types@D@std@@@2@$00@std@@QEAA@U_One_then_variadic_args_t@1@AEBV?$allocator@D@1@@Z
	??$?0AEBV?$allocator@G@std@@$$V@?$_Compressed_pair@V?$allocator@G@std@@V?$_Vector_val@U?$_Simple_types@G@std@@@2@$00@std@@QEAA@U_One_then_variadic_args_t@1@AEBV?$allocator@G@1@@Z
	??$?0AEBV?$allocator@I@std@@$$V@?$_Compressed_pair@V?$allocator@I@std@@V?$_Vector_val@U?$_Simple_types@I@std@@@2@$00@std@@QEAA@U_One_then_variadic_args_t@1@AEBV?$allocator@I@1@@Z
	??$?0AEBV?$allocator@M@std@@$$V@?$_Compressed_pair@V?$allocator@M@std@@V?$_Vector_val@U?$_Simple_types@M@std@@@2@$00@std@@QEAA@U_One_then_variadic_args_t@1@AEBV?$allocator@M@1@@Z
	??$?0D@?$allocator@U_Container_proxy@std@@@std@@QEAA@AEBV?$allocator@D@1@@Z
	??$?0E$$V$0A@@?$tuple@$$QEAE@std@@QEAA@$$QEAE@Z
	??$?0E@?$_Tuple_val@$$QEAE@std@@QEAA@$$QEAE@Z
	??$?0EAEAI$0A@@?$pair@$$CBEI@std@@QEAA@$$QEAEAEAI@Z
	??$?0EAEAI@?$_Tree_temp_node@V?$allocator@U?$_Tree_node@U?$pair@$$CBEI@std@@PEAX@std@@@std@@@std@@QEAA@AEAV?$allocator@U?$_Tree_node@U?$pair@$$CBEI@std@@PEAX@std@@@1@PEAU?$_Tree_node@U?$pair@$$CBEI@std@@PEAX@1@$$QEAEAEAI@Z
	??$?0G@?$allocator@U_Container_proxy@std@@@std@@QEAA@AEBV?$allocator@G@1@@Z
	??$?0H$0A@@?$duration@_JU?$ratio@$00$00@std@@@chrono@std@@QEAA@AEBH@Z
	??$?0H$0A@@?$duration@_JU?$ratio@$00$0PECEA@@std@@@chrono@std@@QEAA@AEBH@Z
	??$?0HAEAE$0A@@?$pair@II@std@@QEAA@$$QEAHAEAE@Z
	??$?0HAEBI$0A@@?$pair@II@std@@QEAA@$$QEAHAEBI@Z
	??$?0I@?$allocator@U_Container_proxy@std@@@std@@QEAA@AEBV?$allocator@I@1@@Z
	??$?0M@?$allocator@U_Container_proxy@std@@@std@@QEAA@AEBV?$allocator@M@1@@Z
	??$?0MM$0A@@?$pair@MM@std@@QEAA@$$QEAM0@Z
	??$?0N$0A@@?$duration@NU?$ratio@$00$0DLJKMKAA@@std@@@chrono@std@@QEAA@AEBN@Z
	??$?0NN$0A@@?$pair@NN@std@@QEAA@$$QEAN0@Z
	??$?0NN$0A@@?$pair@NN@std@@QEAA@XZ
	??$?0NU?$ratio@$00$00@std@@$0A@@?$duration@NU?$ratio@$00$0DLJKMKAA@@std@@@chrono@std@@QEAA@AEBV?$duration@NU?$ratio@$00$00@std@@@12@@Z
	??$?0PEAD$0A@@?$basic_string@DU?$char_traits@D@std@@V?$allocator@D@2@@std@@QEAA@PEAD0AEBV?$allocator@D@1@@Z
	??$?0PEAU?$_Tree_node@U?$pair@$$CBEI@std@@PEAX@std@@_N$0A@@?$pair@PEAU?$_Tree_node@U?$pair@$$CBEI@std@@PEAX@std@@_N@std@@QEAA@$$QEAPEAU?$_Tree_node@U?$pair@$$CBEI@std@@PEAX@1@$$QEA_N@Z
	??$?0PEAU?$_Tree_node@U?$pair@$$CBEURegister_Modification@Driver@Avian@Infineon@@@std@@PEAX@std@@_N$0A@@?$pair@PEAU?$_Tree_node@U?$pair@$$CBEURegister_Modification@Driver@Avian@Infineon@@@std@@PEAX@std@@_N@std@@QEAA@$$QEAPEAU?$_Tree_node@U?$pair@$$CBEURegister_Modification@Driver@Avian@Infineon@@@std@@PEAX@1@$$QEA_N@Z
	??$?0PEAU?$_Tree_node@U?$pair@$$CBIV?$vector@MV?$allocator@M@std@@@std@@@std@@PEAX@std@@_N$0A@@?$pair@PEAU?$_Tree_node@U?$pair@$$CBIV?$vector@MV?$allocator@M@std@@@std@@@std@@PEAX@std@@_N@std@@QEAA@$$QEAPEAU?$_Tree_node@U?$pair@$$CBIV?$vector@MV?$allocator@M@std@@@std@@@std@@PEAX@1@$$QEA_N@Z
	??$?0PEBI$0A@@?$vector@IV?$allocator@I@std@@@std@@QEAA@PEBI0AEBV?$allocator@I@1@@Z
	??$?0U?$_List_node@UTimer@ModelBGT60TRxxC@TimingModel@Avian@Infineon@@PEAX@std@@@?$allocator@U_Container_proxy@std@@@std@@QEAA@AEBV?$allocator@U?$_List_node@UTimer@ModelBGT60TRxxC@TimingModel@Avian@Infineon@@PEAX@std@@@1@@Z
	??$?0U?$_Tree_node@U?$pair@$$CBEI@std@@PEAX@std@@@?$allocator@U_Container_proxy@std@@@std@@QEAA@AEBV?$allocator@U?$_Tree_node@U?$pair@$$CBEI@std@@PEAX@std@@@1@@Z
	??$?0U?$_Tree_node@U?$pair@$$CBEURegister_Modification@Driver@Avian@Infineon@@@std@@PEAX@std@@@?$allocator@U_Container_proxy@std@@@std@@QEAA@AEBV?$allocator@U?$_Tree_node@U?$pair@$$CBEURegister_Modification@Driver@Avian@Infineon@@@std@@PEAX@std@@@1@@Z
	??$?0U?$_Tree_node@U?$pair@$$CBIV?$vector@MV?$allocator@M@std@@@std@@@std@@PEAX@std@@@?$allocator@U_Container_proxy@std@@@std@@QEAA@AEBV?$allocator@U?$_Tree_node@U?$pair@$$CBIV?$vector@MV?$allocator@M@std@@@std@@@std@@PEAX@std@@@1@@Z
	??$?0U?$_Tree_node@U?$pair@$$CBV?$basic_string@DU?$char_traits@D@std@@V?$allocator@D@2@@std@@UAddress@?$NamedMemory@GI@@@std@@PEAX@std@@@?$allocator@U_Container_proxy@std@@@std@@QEAA@AEBV?$allocator@U?$_Tree_node@U?$pair@$$CBV?$basic_string@DU?$char_traits@D@std@@V?$allocator@D@2@@std@@UAddress@?$NamedMemory@GI@@@std@@PEAX@std@@@1@@Z
	??$?0U?$default_delete@VDriver@Avian@Infineon@@@std@@$0A@@?$unique_ptr@VDriver@Avian@Infineon@@U?$default_delete@VDriver@Avian@Infineon@@@std@@@std@@QEAA@$$QEAV01@@Z
	??$?0U?$default_delete@VDriver@Avian@Infineon@@@std@@$0A@@?$unique_ptr@VDriver@Avian@Infineon@@U?$default_delete@VDriver@Avian@Infineon@@@std@@@std@@QEAA@$$T@Z
	??$?0U?$default_delete@VDriver@Avian@Infineon@@@std@@$0A@@?$unique_ptr@VDriver@Avian@Infineon@@U?$default_delete@VDriver@Avian@Infineon@@@std@@@std@@QEAA@PEAVDriver@Avian@Infineon@@@Z
	??$?0U?$default_delete@VDriver@Avian@Infineon@@@std@@PEAVDriver@Avian@Infineon@@@?$_Compressed_pair@U?$default_delete@VDriver@Avian@Infineon@@@std@@PEAVDriver@Avian@Infineon@@$00@std@@QEAA@U_One_then_variadic_args_t@1@$$QEAU?$default_delete@VDriver@Avian@Infineon@@@1@$$QEAPEAVDriver@Avian@Infineon@@@Z
	??$?0U?$default_delete@VModelBGT60TR11D@TimingModel@Avian@Infineon@@@std@@$0A@@?$unique_ptr@VModelBGT60TR11D@TimingModel@Avian@Infineon@@U?$default_delete@VModelBGT60TR11D@TimingModel@Avian@Infineon@@@std@@@std@@QEAA@PEAVModelBGT60TR11D@TimingModel@Avian@Infineon@@@Z
	??$?0U?$default_delete@VModelBGT60TRxxC@TimingModel@Avian@Infineon@@@std@@$0A@@?$unique_ptr@VModelBGT60TRxxC@TimingModel@Avian@Infineon@@U?$default_delete@VModelBGT60TRxxC@TimingModel@Avian@Infineon@@@std@@@std@@QEAA@PEAVModelBGT60TRxxC@TimingModel@Avian@Infineon@@@Z
	??$?0U?$default_delete@VModelBGT60TRxxC@TimingModel@Avian@Infineon@@@std@@$0A@@?$unique_ptr@VModelBGT60TRxxC@TimingModel@Avian@Infineon@@U?$default_delete@VModelBGT60TRxxC@TimingModel@Avian@Infineon@@@std@@@std@@QEAA@XZ
	??$?0U?$default_delete@VModelBGT60TRxxD@TimingModel@Avian@Infineon@@@std@@$0A@@?$unique_ptr@VModelBGT60TRxxD@TimingModel@Avian@Infineon@@U?$default_delete@VModelBGT60TRxxD@TimingModel@Avian@Infineon@@@std@@@std@@QEAA@PEAVModelBGT60TRxxD@TimingModel@Avian@Infineon@@@Z
	??$?0U?$default_delete@VSequenceParameters11D@TimingModel@Avian@Infineon@@@std@@$0A@@?$unique_ptr@VSequenceParameters11D@TimingModel@Avian@Infineon@@U?$default_delete@VSequenceParameters11D@TimingModel@Avian@Infineon@@@std@@@std@@QEAA@PEAVSequenceParameters11D@TimingModel@Avian@Infineon@@@Z
	??$?0U?$default_delete@VSequenceParameters@TimingModel@Avian@Infineon@@@std@@$0A@@?$unique_ptr@VSequenceParameters@TimingModel@Avian@Infineon@@U?$default_delete@VSequenceParameters@TimingModel@Avian@Infineon@@@std@@@std@@QEAA@PEAVSequenceParameters@TimingModel@Avian@Infineon@@@Z
	??$?0U?$default_delete@VSequenceParameters@TimingModel@Avian@Infineon@@@std@@$0A@@?$unique_ptr@VSequenceParameters@TimingModel@Avian@Infineon@@U?$default_delete@VSequenceParameters@TimingModel@Avian@Infineon@@@std@@@std@@QEAA@XZ
	??$?0U?$default_delete@VSequenceParametersD@TimingModel@Avian@Infineon@@@std@@$0A@@?$unique_ptr@VSequenceParametersD@TimingModel@Avian@Infineon@@U?$default_delete@VSequenceParametersD@TimingModel@Avian@Infineon@@@std@@@std@@QEAA@PEAVSequenceParametersD@TimingModel@Avian@Infineon@@@Z
	??$?0U?$less@E@std@@U_One_then_variadic_args_t@1@V?$allocator@U?$_Tree_node@U?$pair@$$CBEI@std@@PEAX@std@@@1@@?$_Compressed_pair@U?$less@E@std@@V?$_Compressed_pair@V?$allocator@U?$_Tree_node@U?$pair@$$CBEI@std@@PEAX@std@@@std@@V?$_Tree_val@U?$_Tree_simple_types@U?$pair@$$CBEI@std@@@std@@@2@$00@2@$00@std@@QEAA@U_One_then_variadic_args_t@1@$$QEAU?$less@E@1@$$QEAU21@$$QEAV?$allocator@U?$_Tree_node@U?$pair@$$CBEI@std@@PEAX@std@@@1@@Z
	??$?0U?$less@I@std@@U_One_then_variadic_args_t@1@V?$allocator@U?$_Tree_node@U?$pair@$$CBIV?$vector@MV?$allocator@M@std@@@std@@@std@@PEAX@std@@@1@@?$_Compressed_pair@U?$less@I@std@@V?$_Compressed_pair@V?$allocator@U?$_Tree_node@U?$pair@$$CBIV?$vector@MV?$allocator@M@std@@@std@@@std@@PEAX@std@@@std@@V?$_Tree_val@U?$_Tree_simple_types@U?$pair@$$CBIV?$vector@MV?$allocator@M@std@@@std@@@std@@@std@@@2@$00@2@$00@std@@QEAA@U_One_then_variadic_args_t@1@$$QEAU?$less@I@1@$$QEAU21@$$QEAV?$allocator@U?$_Tree_node@U?$pair@$$CBIV?$vector@MV?$allocator@M@std@@@std@@@std@@PEAX@std@@@1@@Z
	??$?0U?$less@V?$basic_string@DU?$char_traits@D@std@@V?$allocator@D@2@@std@@@std@@U_One_then_variadic_args_t@1@V?$allocator@U?$_Tree_node@U?$pair@$$CBV?$basic_string@DU?$char_traits@D@std@@V?$allocator@D@2@@std@@UAddress@?$NamedMemory@GI@@@std@@PEAX@std@@@1@@?$_Compressed_pair@U?$less@V?$basic_string@DU?$char_traits@D@std@@V?$allocator@D@2@@std@@@std@@V?$_Compressed_pair@V?$allocator@U?$_Tree_node@U?$pair@$$CBV?$basic_string@DU?$char_traits@D@std@@V?$allocator@D@2@@std@@UAddress@?$NamedMemory@GI@@@std@@PEAX@std@@@std@@V?$_Tree_val@U?$_Tree_simple_types@U?$pair@$$CBV?$basic_string@DU?$char_traits@D@std@@V?$allocator@D@2@@std@@UAddress@?$NamedMemory@GI@@@std@@@std@@@2@$00@2@$00@std@@QEAA@U_One_then_variadic_args_t@1@$$QEAU?$less@V?$basic_string@DU?$char_traits@D@std@@V?$allocator@D@2@@std@@@1@$$QEAU21@$$QEAV?$allocator@U?$_Tree_node@U?$pair@$$CBV?$basic_string@DU?$char_traits@D@std@@V?$allocator@D@2@@std@@UAddress@?$NamedMemory@GI@@@std@@PEAX@std@@@1@@Z
	??$?0UStateInfo@StateSequence@TimingModel@Avian@Infineon@@@?$allocator@U_Container_proxy@std@@@std@@QEAA@AEBV?$allocator@UStateInfo@StateSequence@TimingModel@Avian@Infineon@@@1@@Z
	??$?0U_Exact_args_t@std@@$0A@@?$tuple@$$V@std@@QEAA@U_Exact_args_t@1@@Z
	??$?0U_Exact_args_t@std@@AEBE$$V$0A@@?$tuple@AEBE@std@@QEAA@U_Exact_args_t@1@AEBE@Z
	??$?0U_Exact_args_t@std@@E$$V$0A@@?$tuple@$$QEAE@std@@QEAA@U_Exact_args_t@1@$$QEAE@Z
	??$?0V?$_Tree_iterator@V?$_Tree_val@U?$_Tree_simple_types@U?$pair@$$CBEI@std@@@std@@@std@@@std@@AEB_N$0A@@?$pair@V?$_Tree_iterator@V?$_Tree_val@U?$_Tree_simple_types@U?$pair@$$CBEI@std@@@std@@@std@@@std@@_N@std@@QEAA@$$QEAV?$_Tree_iterator@V?$_Tree_val@U?$_Tree_simple_types@U?$pair@$$CBEI@std@@@std@@@std@@@1@AEB_N@Z
	??$?0V?$_Tree_iterator@V?$_Tree_val@U?$_Tree_simple_types@U?$pair@$$CBIV?$vector@MV?$allocator@M@std@@@std@@@std@@@std@@@std@@@std@@AEB_N$0A@@?$pair@V?$_Tree_iterator@V?$_Tree_val@U?$_Tree_simple_types@U?$pair@$$CBIV?$vector@MV?$allocator@M@std@@@std@@@std@@@std@@@std@@@std@@_N@std@@QEAA@$$QEAV?$_Tree_iterator@V?$_Tree_val@U?$_Tree_simple_types@U?$pair@$$CBIV?$vector@MV?$allocator@M@std@@@std@@@std@@@std@@@std@@@1@AEB_N@Z
	??$?0V?$allocator@D@std@@$$V@?$_Compressed_pair@V?$allocator@D@std@@V?$_String_val@U?$_Simple_types@D@std@@@2@$00@std@@QEAA@U_One_then_variadic_args_t@1@$$QEAV?$allocator@D@1@@Z
	??$?0V?$allocator@I@std@@PEAIPEAIPEAI@?$_Compressed_pair@V?$allocator@I@std@@V?$_Vector_val@U?$_Simple_types@I@std@@@2@$00@std@@QEAA@U_One_then_variadic_args_t@1@$$QEAV?$allocator@I@1@$$QEAPEAI22@Z
	??$?0V?$allocator@U?$_Tree_node@U?$pair@$$CBEI@std@@PEAX@std@@@std@@$$V@?$_Compressed_pair@V?$allocator@U?$_Tree_node@U?$pair@$$CBEI@std@@PEAX@std@@@std@@V?$_Tree_val@U?$_Tree_simple_types@U?$pair@$$CBEI@std@@@std@@@2@$00@std@@QEAA@U_One_then_variadic_args_t@1@$$QEAV?$allocator@U?$_Tree_node@U?$pair@$$CBEI@std@@PEAX@std@@@1@@Z
	??$?0V?$allocator@U?$_Tree_node@U?$pair@$$CBEI@std@@PEAX@std@@@std@@@?$_Tree@V?$_Tmap_traits@EIU?$less@E@std@@V?$allocator@U?$pair@$$CBEI@std@@@2@$0A@@std@@@std@@QEAA@AEBV01@$$QEAV?$allocator@U?$_Tree_node@U?$pair@$$CBEI@std@@PEAX@std@@@1@@Z
	??$?0V?$allocator@U?$_Tree_node@U?$pair@$$CBIV?$vector@MV?$allocator@M@std@@@std@@@std@@PEAX@std@@@std@@$$V@?$_Compressed_pair@V?$allocator@U?$_Tree_node@U?$pair@$$CBIV?$vector@MV?$allocator@M@std@@@std@@@std@@PEAX@std@@@std@@V?$_Tree_val@U?$_Tree_simple_types@U?$pair@$$CBIV?$vector@MV?$allocator@M@std@@@std@@@std@@@std@@@2@$00@std@@QEAA@U_One_then_variadic_args_t@1@$$QEAV?$allocator@U?$_Tree_node@U?$pair@$$CBIV?$vector@MV?$allocator@M@std@@@std@@@std@@PEAX@std@@@1@@Z
	??$?0V?$allocator@U?$_Tree_node@U?$pair@$$CBV?$basic_string@DU?$char_traits@D@std@@V?$allocator@D@2@@std@@UAddress@?$NamedMemory@GI@@@std@@PEAX@std@@@std@@$$V@?$_Compressed_pair@V?$allocator@U?$_Tree_node@U?$pair@$$CBV?$basic_string@DU?$char_traits@D@std@@V?$allocator@D@2@@std@@UAddress@?$NamedMemory@GI@@@std@@PEAX@std@@@std@@V?$_Tree_val@U?$_Tree_simple_types@U?$pair@$$CBV?$basic_string@DU?$char_traits@D@std@@V?$allocator@D@2@@std@@UAddress@?$NamedMemory@GI@@@std@@@std@@@2@$00@std@@QEAA@U_One_then_variadic_args_t@1@$$QEAV?$allocator@U?$_Tree_node@U?$pair@$$CBV?$basic_string@DU?$char_traits@D@std@@V?$allocator@D@2@@std@@UAddress@?$NamedMemory@GI@@@std@@PEAX@std@@@1@@Z
	??$?0V?$allocator@U?$_Tree_node@U?$pair@$$CBV?$basic_string@DU?$char_traits@D@std@@V?$allocator@D@2@@std@@UAddress@?$NamedMemory@GI@@@std@@PEAX@std@@@std@@@?$_Tree@V?$_Tmap_traits@V?$basic_string@DU?$char_traits@D@std@@V?$allocator@D@2@@std@@UAddress@?$NamedMemory@GI@@U?$less@V?$basic_string@DU?$char_traits@D@std@@V?$allocator@D@2@@std@@@2@V?$allocator@U?$pair@$$CBV?$basic_string@DU?$char_traits@D@std@@V?$allocator@D@2@@std@@UAddress@?$NamedMemory@GI@@@std@@@2@$0A@@std@@@std@@QEAA@AEBV01@$$QEAV?$allocator@U?$_Tree_node@U?$pair@$$CBV?$basic_string@DU?$char_traits@D@std@@V?$allocator@D@2@@std@@UAddress@?$NamedMemory@GI@@@std@@PEAX@std@@@1@@Z
	??$?0V?$tuple@$$QEAE@std@@V?$tuple@$$V@1@$0A@$$Z$S@?$pair@$$CBEI@std@@QEAA@AEAV?$tuple@$$QEAE@1@AEAV?$tuple@$$V@1@U?$integer_sequence@_K$0A@@1@U?$integer_sequence@_K$S@1@@Z
	??$?0V?$tuple@AEBE@std@@V?$tuple@$$V@1@$0A@$$Z$S@?$pair@$$CBEI@std@@QEAA@AEAV?$tuple@AEBE@1@AEAV?$tuple@$$V@1@U?$integer_sequence@_K$0A@@1@U?$integer_sequence@_K$S@1@@Z
	??$?0V?$tuple@AEBE@std@@V?$tuple@$$V@1@$0A@$$Z$S@?$pair@$$CBEURegister_Modification@Driver@Avian@Infineon@@@std@@QEAA@AEAV?$tuple@AEBE@1@AEAV?$tuple@$$V@1@U?$integer_sequence@_K$0A@@1@U?$integer_sequence@_K$S@1@@Z
	??$?0VModelBGT60TR11D@TimingModel@Avian@Infineon@@$0A@@?$default_delete@VModelBGT60TRxxC@TimingModel@Avian@Infineon@@@std@@QEAA@AEBU?$default_delete@VModelBGT60TR11D@TimingModel@Avian@Infineon@@@1@@Z
	??$?0VModelBGT60TRxxD@TimingModel@Avian@Infineon@@$0A@@?$default_delete@VModelBGT60TRxxC@TimingModel@Avian@Infineon@@@std@@QEAA@AEBU?$default_delete@VModelBGT60TRxxD@TimingModel@Avian@Infineon@@@1@@Z
	??$?0VSequenceParameters11D@TimingModel@Avian@Infineon@@$0A@@?$default_delete@VSequenceParameters@TimingModel@Avian@Infineon@@@std@@QEAA@AEBU?$default_delete@VSequenceParameters11D@TimingModel@Avian@Infineon@@@1@@Z
	??$?0VSequenceParametersD@TimingModel@Avian@Infineon@@$0A@@?$default_delete@VSequenceParameters@TimingModel@Avian@Infineon@@@std@@QEAA@AEBU?$default_delete@VSequenceParametersD@TimingModel@Avian@Infineon@@@1@@Z
	??$?0_J$0A@@?$duration@_JU?$ratio@$00$00@std@@@chrono@std@@QEAA@AEB_J@Z
	??$?0_J$0A@@?$duration@_JU?$ratio@$00$0DLJKMKAA@@std@@@chrono@std@@QEAA@AEB_J@Z
	??$?0_J$0A@@?$duration@_JU?$ratio@$00$0DOI@@std@@@chrono@std@@QEAA@AEB_J@Z
	??$?0_J$0A@@?$duration@_JU?$ratio@$00$0JIJGIA@@std@@@chrono@std@@QEAA@AEB_J@Z
	??$?0_JU?$ratio@$00$00@std@@$0A@@?$duration@_JU?$ratio@$00$0DLJKMKAA@@std@@@chrono@std@@QEAA@AEBV?$duration@_JU?$ratio@$00$00@std@@@12@@Z
	??$?0_JU?$ratio@$00$0DLJKMKAA@@std@@$0A@@?$duration@NU?$ratio@$00$0DLJKMKAA@@std@@@chrono@std@@QEAA@AEBV?$duration@_JU?$ratio@$00$0DLJKMKAA@@std@@@12@@Z
	??$?0_JU?$ratio@$00$0DOI@@std@@$0A@@?$duration@_JU?$ratio@$00$0DLJKMKAA@@std@@@chrono@std@@QEAA@AEBV?$duration@_JU?$ratio@$00$0DOI@@std@@@12@@Z
	??$?0_JU?$ratio@$00$0JIJGIA@@std@@$0A@@?$duration@_JU?$ratio@$00$0DLJKMKAA@@std@@@chrono@std@@QEAA@AEBV?$duration@_JU?$ratio@$00$0JIJGIA@@std@@@12@@Z
	??$?0_JU?$ratio@$00$0PECEA@@std@@$0A@@?$duration@_JU?$ratio@$00$0DLJKMKAA@@std@@@chrono@std@@QEAA@AEBV?$duration@_JU?$ratio@$00$0PECEA@@std@@@12@@Z
	??$?4U?$default_delete@VModelBGT60TRxxC@TimingModel@Avian@Infineon@@@std@@$0A@@?$unique_ptr@VModelBGT60TRxxC@TimingModel@Avian@Infineon@@U?$default_delete@VModelBGT60TRxxC@TimingModel@Avian@Infineon@@@std@@@std@@QEAAAEAV01@$$QEAV01@@Z
	??$?4U?$default_delete@VSequenceParameters@TimingModel@Avian@Infineon@@@std@@$0A@@?$unique_ptr@VSequenceParameters@TimingModel@Avian@Infineon@@U?$default_delete@VSequenceParameters@TimingModel@Avian@Infineon@@@std@@@std@@QEAAAEAV01@$$QEAV01@@Z
	??$?4U?$pair@NN@std@@$0A@@?$pair@NN@std@@QEAAAEAU01@$$QEAU01@@Z
	??$?4VModelBGT60TR11D@TimingModel@Avian@Infineon@@U?$default_delete@VModelBGT60TR11D@TimingModel@Avian@Infineon@@@std@@$0A@@?$unique_ptr@VModelBGT60TRxxC@TimingModel@Avian@Infineon@@U?$default_delete@VModelBGT60TRxxC@TimingModel@Avian@Infineon@@@std@@@std@@QEAAAEAV01@$$QEAV?$unique_ptr@VModelBGT60TR11D@TimingModel@Avian@Infineon@@U?$default_delete@VModelBGT60TR11D@TimingModel@Avian@Infineon@@@std@@@1@@Z
	??$?4VModelBGT60TRxxD@TimingModel@Avian@Infineon@@U?$default_delete@VModelBGT60TRxxD@TimingModel@Avian@Infineon@@@std@@$0A@@?$unique_ptr@VModelBGT60TRxxC@TimingModel@Avian@Infineon@@U?$default_delete@VModelBGT60TRxxC@TimingModel@Avian@Infineon@@@std@@@std@@QEAAAEAV01@$$QEAV?$unique_ptr@VModelBGT60TRxxD@TimingModel@Avian@Infineon@@U?$default_delete@VModelBGT60TRxxD@TimingModel@Avian@Infineon@@@std@@@1@@Z
	??$?4VSequenceParameters11D@TimingModel@Avian@Infineon@@U?$default_delete@VSequenceParameters11D@TimingModel@Avian@Infineon@@@std@@$0A@@?$unique_ptr@VSequenceParameters@TimingModel@Avian@Infineon@@U?$default_delete@VSequenceParameters@TimingModel@Avian@Infineon@@@std@@@std@@QEAAAEAV01@$$QEAV?$unique_ptr@VSequenceParameters11D@TimingModel@Avian@Infineon@@U?$default_delete@VSequenceParameters11D@TimingModel@Avian@Infineon@@@std@@@1@@Z
	??$?4VSequenceParametersD@TimingModel@Avian@Infineon@@U?$default_delete@VSequenceParametersD@TimingModel@Avian@Infineon@@@std@@$0A@@?$unique_ptr@VSequenceParameters@TimingModel@Avian@Infineon@@U?$default_delete@VSequenceParameters@TimingModel@Avian@Infineon@@@std@@@std@@QEAAAEAV01@$$QEAV?$unique_ptr@VSequenceParametersD@TimingModel@Avian@Infineon@@U?$default_delete@VSequenceParametersD@TimingModel@Avian@Infineon@@@std@@@1@@Z
	??$?6DU?$char_traits@D@std@@@std@@YAAEAV?$basic_ostream@DU?$char_traits@D@std@@@0@AEAV10@AEBU?$_Fillobj@D@0@@Z
	??$?6DU?$char_traits@D@std@@@std@@YAAEAV?$basic_ostream@DU?$char_traits@D@std@@@0@AEAV10@AEBU?$_Smanip@_J@0@@Z
	??$?6DU?$char_traits@D@std@@@std@@YAAEAV?$basic_ostream@DU?$char_traits@D@std@@@0@AEAV10@V?$basic_string_view@DU?$char_traits@D@std@@@0@@Z
	??$?6DU?$char_traits@D@std@@V?$allocator@D@1@@std@@YAAEAV?$basic_ostream@DU?$char_traits@D@std@@@0@AEAV10@AEBV?$basic_string@DU?$char_traits@D@std@@V?$allocator@D@2@@0@@Z
	??$?6U?$char_traits@D@std@@@std@@YAAEAV?$basic_ostream@DU?$char_traits@D@std@@@0@AEAV10@PEBD@Z
	??$?CVIBridge@@$0A@@?$shared_ptr@VIBridge@@@std@@QEBAPEAVIBridge@@XZ
	??$?GUsteady_clock@chrono@std@@V?$duration@_JU?$ratio@$00$0DLJKMKAA@@std@@@12@V312@@chrono@std@@YA?AV?$duration@_JU?$ratio@$00$0DLJKMKAA@@std@@@01@AEBV?$time_point@Usteady_clock@chrono@std@@V?$duration@_JU?$ratio@$00$0DLJKMKAA@@std@@@23@@01@0@Z
	??$?GUsteady_clock@chrono@std@@V?$duration@_JU?$ratio@$00$0DLJKMKAA@@std@@@12@_JU?$ratio@$00$00@2@@chrono@std@@YA?AV?$time_point@Usteady_clock@chrono@std@@V?$duration@_JU?$ratio@$00$0DLJKMKAA@@std@@@23@@01@AEBV201@AEBV?$duration@_JU?$ratio@$00$00@std@@@01@@Z
	??$?GUsteady_clock@chrono@std@@V?$duration@_JU?$ratio@$00$0DLJKMKAA@@std@@@12@_JU?$ratio@$00$0PECEA@@2@@chrono@std@@YA?AV?$time_point@Usteady_clock@chrono@std@@V?$duration@_JU?$ratio@$00$0DLJKMKAA@@std@@@23@@01@AEBV201@AEBV?$duration@_JU?$ratio@$00$0PECEA@@std@@@01@@Z
	??$?G_JU?$ratio@$00$0DLJKMKAA@@std@@_JU01@@chrono@std@@YA?AV?$duration@_JU?$ratio@$00$0DLJKMKAA@@std@@@01@AEBV201@0@Z
	??$?G_JU?$ratio@$00$0DLJKMKAA@@std@@_JU?$ratio@$00$00@1@@chrono@std@@YA?AV?$duration@_JU?$ratio@$00$0DLJKMKAA@@std@@@01@AEBV201@AEBV?$duration@_JU?$ratio@$00$00@std@@@01@@Z
	??$?G_JU?$ratio@$00$0DLJKMKAA@@std@@_JU?$ratio@$00$0PECEA@@1@@chrono@std@@YA?AV?$duration@_JU?$ratio@$00$0DLJKMKAA@@std@@@01@AEBV201@AEBV?$duration@_JU?$ratio@$00$0PECEA@@std@@@01@@Z
	??$?HDU?$char_traits@D@std@@V?$allocator@D@1@@std@@YA?AV?$basic_string@DU?$char_traits@D@std@@V?$allocator@D@2@@0@$$QEAV10@0@Z
	??$?HDU?$char_traits@D@std@@V?$allocator@D@1@@std@@YA?AV?$basic_string@DU?$char_traits@D@std@@V?$allocator@D@2@@0@$$QEAV10@QEBD@Z
	??$?HDU?$char_traits@D@std@@V?$allocator@D@1@@std@@YA?AV?$basic_string@DU?$char_traits@D@std@@V?$allocator@D@2@@0@QEBD$$QEAV10@@Z
	??$?HDU?$char_traits@D@std@@V?$allocator@D@1@@std@@YA?AV?$basic_string@DU?$char_traits@D@std@@V?$allocator@D@2@@0@QEBDAEBV10@@Z
	??$?MDU?$char_traits@D@std@@V?$allocator@D@1@@std@@YA_NAEBV?$basic_string@DU?$char_traits@D@std@@V?$allocator@D@2@@0@0@Z
	??$?MNU?$ratio@$00$00@std@@_JU?$ratio@$00$0DLJKMKAA@@1@@chrono@std@@YA_NAEBV?$duration@NU?$ratio@$00$00@std@@@01@AEBV?$duration@_JU?$ratio@$00$0DLJKMKAA@@std@@@01@@Z
	??$?MUsteady_clock@chrono@std@@V?$duration@_JU?$ratio@$00$0DLJKMKAA@@std@@@12@V312@@chrono@std@@YA_NAEBV?$time_point@Usteady_clock@chrono@std@@V?$duration@_JU?$ratio@$00$0DLJKMKAA@@std@@@23@@01@0@Z
	??$?M_JU?$ratio@$00$00@std@@_JU01@@chrono@std@@YA_NAEBV?$duration@_JU?$ratio@$00$00@std@@@01@0@Z
	??$?M_JU?$ratio@$00$0DLJKMKAA@@std@@_JU01@@chrono@std@@YA_NAEBV?$duration@_JU?$ratio@$00$0DLJKMKAA@@std@@@01@0@Z
	??$?M_JU?$ratio@$00$0DLJKMKAA@@std@@_JU?$ratio@$00$0DOI@@1@@chrono@std@@YA_NAEBV?$duration@_JU?$ratio@$00$0DLJKMKAA@@std@@@01@AEBV?$duration@_JU?$ratio@$00$0DOI@@std@@@01@@Z
	??$?M_JU?$ratio@$00$0DOI@@std@@_JU?$ratio@$00$0DLJKMKAA@@1@@chrono@std@@YA_NAEBV?$duration@_JU?$ratio@$00$0DOI@@std@@@01@AEBV?$duration@_JU?$ratio@$00$0DLJKMKAA@@std@@@01@@Z
	??$?M_JU?$ratio@$00$0PECEA@@std@@_JU01@@chrono@std@@YA_NAEBV?$duration@_JU?$ratio@$00$0PECEA@@std@@@01@0@Z
	??$?NUsteady_clock@chrono@std@@V?$duration@_JU?$ratio@$00$0DLJKMKAA@@std@@@12@V312@@chrono@std@@YA_NAEBV?$time_point@Usteady_clock@chrono@std@@V?$duration@_JU?$ratio@$00$0DLJKMKAA@@std@@@23@@01@0@Z
	??$?O_JU?$ratio@$00$00@std@@_JU01@@chrono@std@@YA_NAEBV?$duration@_JU?$ratio@$00$00@std@@@01@0@Z
	??$?O_JU?$ratio@$00$0PECEA@@std@@_JU01@@chrono@std@@YA_NAEBV?$duration@_JU?$ratio@$00$0PECEA@@std@@@01@0@Z
	??$?P_JU?$ratio@$00$0DLJKMKAA@@std@@_JU?$ratio@$00$0DOI@@1@@chrono@std@@YA_NAEBV?$duration@_JU?$ratio@$00$0DLJKMKAA@@std@@@01@AEBV?$duration@_JU?$ratio@$00$0DOI@@std@@@01@@Z
	??$?RV<lambda_0991b17b33eea9784d4fe7a8baf00fb9>@@@<lambda_c1360b9bf268940e784deeafc1e34478>@@QEBA?A_PV<lambda_0991b17b33eea9784d4fe7a8baf00fb9>@@@Z
	??$?RV<lambda_4be758431e80ab3b1d2f91de89034a0f>@@@<lambda_c1360b9bf268940e784deeafc1e34478>@@QEBA?A_PV<lambda_4be758431e80ab3b1d2f91de89034a0f>@@@Z
	??$?RV<lambda_63564f6e8c4be3b5f3bf30b8ca975984>@@@<lambda_c1360b9bf268940e784deeafc1e34478>@@QEBA?A_PV<lambda_63564f6e8c4be3b5f3bf30b8ca975984>@@@Z
	??$_Adl_verify_range@PEADPEAD@std@@YAXAEBQEAD0@Z
	??$_Adl_verify_range@PEAEPEAE@std@@YAXAEBQEAE0@Z
	??$_Adl_verify_range@PEBIPEBI@std@@YAXAEBQEBI0@Z
	??$_Adl_verify_range@PEBUChannel_Set_Settings@Driver@Avian@Infineon@@PEBU1234@@std@@YAXAEBQEBUChannel_Set_Settings@Driver@Avian@Infineon@@0@Z
	??$_Adl_verify_range@PEBUShape_Settings@Driver@Avian@Infineon@@PEBU1234@@std@@YAXAEBQEBUShape_Settings@Driver@Avian@Infineon@@0@Z
	??$_Adl_verify_range@V?$_Array_iterator@I$01@std@@V12@@std@@YAXAEBV?$_Array_iterator@I$01@0@0@Z
	??$_Alloc_proxy@V?$allocator@U_Container_proxy@std@@@std@@@_Container_base12@std@@QEAAX$$QEAV?$allocator@U_Container_proxy@std@@@1@@Z
	??$_Allocate@$0BA@U_Default_allocate_traits@std@@$0A@@std@@YAPEAX_K@Z
	??$_Allocate_at_least_helper@V?$allocator@D@std@@@std@@YAPEADAEAV?$allocator@D@0@AEA_K@Z
	??$_Allocate_at_least_helper@V?$allocator@G@std@@@std@@YAPEAGAEAV?$allocator@G@0@AEA_K@Z
	??$_Allocate_at_least_helper@V?$allocator@I@std@@@std@@YAPEAIAEAV?$allocator@I@0@AEA_K@Z
	??$_Allocate_at_least_helper@V?$allocator@M@std@@@std@@YAPEAMAEAV?$allocator@M@0@AEA_K@Z
	??$_Allocate_at_least_helper@V?$allocator@UStateInfo@StateSequence@TimingModel@Avian@Infineon@@@std@@@std@@YAPEAUStateInfo@StateSequence@TimingModel@Avian@Infineon@@AEAV?$allocator@UStateInfo@StateSequence@TimingModel@Avian@Infineon@@@0@AEA_K@Z
	??$_Allocate_for_capacity@$0A@@?$basic_string@DU?$char_traits@D@std@@V?$allocator@D@2@@std@@CAPEADAEAV?$allocator@D@1@AEA_K@Z
	??$_Allocate_manually_vector_aligned@U_Default_allocate_traits@std@@@std@@YAPEAX_K@Z
	??$_Allocators_equal@V?$allocator@D@std@@@std@@YA_NAEBV?$allocator@D@0@0@Z
	??$_Buyheadnode@V?$allocator@U?$_Tree_node@U?$pair@$$CBEI@std@@PEAX@std@@@std@@@?$_Tree_node@U?$pair@$$CBEI@std@@PEAX@std@@SAPEAU01@AEAV?$allocator@U?$_Tree_node@U?$pair@$$CBEI@std@@PEAX@std@@@1@@Z
	??$_Buyheadnode@V?$allocator@U?$_Tree_node@U?$pair@$$CBEURegister_Modification@Driver@Avian@Infineon@@@std@@PEAX@std@@@std@@@?$_Tree_node@U?$pair@$$CBEURegister_Modification@Driver@Avian@Infineon@@@std@@PEAX@std@@SAPEAU01@AEAV?$allocator@U?$_Tree_node@U?$pair@$$CBEURegister_Modification@Driver@Avian@Infineon@@@std@@PEAX@std@@@1@@Z
	??$_Buyheadnode@V?$allocator@U?$_Tree_node@U?$pair@$$CBIV?$vector@MV?$allocator@M@std@@@std@@@std@@PEAX@std@@@std@@@?$_Tree_node@U?$pair@$$CBIV?$vector@MV?$allocator@M@std@@@std@@@std@@PEAX@std@@SAPEAU01@AEAV?$allocator@U?$_Tree_node@U?$pair@$$CBIV?$vector@MV?$allocator@M@std@@@std@@@std@@PEAX@std@@@1@@Z
	??$_Buyheadnode@V?$allocator@U?$_Tree_node@U?$pair@$$CBV?$basic_string@DU?$char_traits@D@std@@V?$allocator@D@2@@std@@UAddress@?$NamedMemory@GI@@@std@@PEAX@std@@@std@@@?$_Tree_node@U?$pair@$$CBV?$basic_string@DU?$char_traits@D@std@@V?$allocator@D@2@@std@@UAddress@?$NamedMemory@GI@@@std@@PEAX@std@@SAPEAU01@AEAV?$allocator@U?$_Tree_node@U?$pair@$$CBV?$basic_string@DU?$char_traits@D@std@@V?$allocator@D@2@@std@@UAddress@?$NamedMemory@GI@@@std@@PEAX@std@@@1@@Z
	??$_Buynode@AEAU?$pair@$$CBEI@std@@@?$_Tree@V?$_Tmap_traits@EIU?$less@E@std@@V?$allocator@U?$pair@$$CBEI@std@@@2@$0A@@std@@@std@@IEAAPEAU?$_Tree_node@U?$pair@$$CBEI@std@@PEAX@1@AEAU?$pair@$$CBEI@1@@Z
	??$_Buynode@AEAU?$pair@$$CBEURegister_Modification@Driver@Avian@Infineon@@@std@@@?$_Tree@V?$_Tmap_traits@EURegister_Modification@Driver@Avian@Infineon@@U?$less@E@std@@V?$allocator@U?$pair@$$CBEURegister_Modification@Driver@Avian@Infineon@@@std@@@6@$0A@@std@@@std@@IEAAPEAU?$_Tree_node@U?$pair@$$CBEURegister_Modification@Driver@Avian@Infineon@@@std@@PEAX@1@AEAU?$pair@$$CBEURegister_Modification@Driver@Avian@Infineon@@@1@@Z
	??$_Buynode@AEAU?$pair@$$CBV?$basic_string@DU?$char_traits@D@std@@V?$allocator@D@2@@std@@UAddress@?$NamedMemory@GI@@@std@@@?$_Tree@V?$_Tmap_traits@V?$basic_string@DU?$char_traits@D@std@@V?$allocator@D@2@@std@@UAddress@?$NamedMemory@GI@@U?$less@V?$basic_string@DU?$char_traits@D@std@@V?$allocator@D@2@@std@@@2@V?$allocator@U?$pair@$$CBV?$basic_string@DU?$char_traits@D@std@@V?$allocator@D@2@@std@@UAddress@?$NamedMemory@GI@@@std@@@2@$0A@@std@@@std@@IEAAPEAU?$_Tree_node@U?$pair@$$CBV?$basic_string@DU?$char_traits@D@std@@V?$allocator@D@2@@std@@UAddress@?$NamedMemory@GI@@@std@@PEAX@1@AEAU?$pair@$$CBV?$basic_string@DU?$char_traits@D@std@@V?$allocator@D@2@@std@@UAddress@?$NamedMemory@GI@@@1@@Z
	??$_Buynode@V?$allocator@U?$_Tree_node@U?$pair@$$CBEI@std@@PEAX@std@@@std@@AEAU?$pair@$$CBEI@2@@?$_Tree_node@U?$pair@$$CBEI@std@@PEAX@std@@SAPEAU01@AEAV?$allocator@U?$_Tree_node@U?$pair@$$CBEI@std@@PEAX@std@@@1@PEAU01@AEAU?$pair@$$CBEI@1@@Z
	??$_Buynode@V?$allocator@U?$_Tree_node@U?$pair@$$CBEURegister_Modification@Driver@Avian@Infineon@@@std@@PEAX@std@@@std@@AEAU?$pair@$$CBEURegister_Modification@Driver@Avian@Infineon@@@2@@?$_Tree_node@U?$pair@$$CBEURegister_Modification@Driver@Avian@Infineon@@@std@@PEAX@std@@SAPEAU01@AEAV?$allocator@U?$_Tree_node@U?$pair@$$CBEURegister_Modification@Driver@Avian@Infineon@@@std@@PEAX@std@@@1@PEAU01@AEAU?$pair@$$CBEURegister_Modification@Driver@Avian@Infineon@@@1@@Z
	??$_Buynode@V?$allocator@U?$_Tree_node@U?$pair@$$CBV?$basic_string@DU?$char_traits@D@std@@V?$allocator@D@2@@std@@UAddress@?$NamedMemory@GI@@@std@@PEAX@std@@@std@@AEAU?$pair@$$CBV?$basic_string@DU?$char_traits@D@std@@V?$allocator@D@2@@std@@UAddress@?$NamedMemory@GI@@@2@@?$_Tree_node@U?$pair@$$CBV?$basic_string@DU?$char_traits@D@std@@V?$allocator@D@2@@std@@UAddress@?$NamedMemory@GI@@@std@@PEAX@std@@SAPEAU01@AEAV?$allocator@U?$_Tree_node@U?$pair@$$CBV?$basic_string@DU?$char_traits@D@std@@V?$allocator@D@2@@std@@UAddress@?$NamedMemory@GI@@@std@@PEAX@std@@@1@PEAU01@AEAU?$pair@$$CBV?$basic_string@DU?$char_traits@D@std@@V?$allocator@D@2@@std@@UAddress@?$NamedMemory@GI@@@1@@Z
	??$_Construct@$00PEAD@?$basic_string@DU?$char_traits@D@std@@V?$allocator@D@2@@std@@AEAAXQEAD_K@Z
	??$_Construct@$00PEBD@?$basic_string@DU?$char_traits@D@std@@V?$allocator@D@2@@std@@AEAAXQEBD_K@Z
	??$_Construct@$01PEBD@?$basic_string@DU?$char_traits@D@std@@V?$allocator@D@2@@std@@AEAAXQEBD_K@Z
	??$_Construct@$0A@D@?$basic_string@DU?$char_traits@D@std@@V?$allocator@D@2@@std@@AEAAXD_K@Z
	??$_Construct_in_place@IAEBI@std@@YAXAEAIAEBI@Z
	??$_Construct_in_place@II@std@@YAXAEAI$$QEAI@Z
	??$_Construct_in_place@PEADAEAPEAD@std@@YAXAEAPEAD0@Z
	??$_Construct_in_place@PEADAEBQEAD@std@@YAXAEAPEADAEBQEAD@Z
	??$_Construct_in_place@PEAU?$_List_node@UTimer@ModelBGT60TRxxC@TimingModel@Avian@Infineon@@PEAX@std@@AEAPEAU12@@std@@YAXAEAPEAU?$_List_node@UTimer@ModelBGT60TRxxC@TimingModel@Avian@Infineon@@PEAX@0@0@Z
	??$_Construct_in_place@PEAU?$_List_node@UTimer@ModelBGT60TRxxC@TimingModel@Avian@Infineon@@PEAX@std@@AEBQEAU12@@std@@YAXAEAPEAU?$_List_node@UTimer@ModelBGT60TRxxC@TimingModel@Avian@Infineon@@PEAX@0@AEBQEAU10@@Z
	??$_Construct_in_place@PEAU?$_Tree_node@U?$pair@$$CBEI@std@@PEAX@std@@AEAPEAU12@@std@@YAXAEAPEAU?$_Tree_node@U?$pair@$$CBEI@std@@PEAX@0@0@Z
	??$_Construct_in_place@PEAU?$_Tree_node@U?$pair@$$CBEI@std@@PEAX@std@@AEBQEAU12@@std@@YAXAEAPEAU?$_Tree_node@U?$pair@$$CBEI@std@@PEAX@0@AEBQEAU10@@Z
	??$_Construct_in_place@PEAU?$_Tree_node@U?$pair@$$CBEURegister_Modification@Driver@Avian@Infineon@@@std@@PEAX@std@@AEAPEAU12@@std@@YAXAEAPEAU?$_Tree_node@U?$pair@$$CBEURegister_Modification@Driver@Avian@Infineon@@@std@@PEAX@0@0@Z
	??$_Construct_in_place@PEAU?$_Tree_node@U?$pair@$$CBEURegister_Modification@Driver@Avian@Infineon@@@std@@PEAX@std@@AEBQEAU12@@std@@YAXAEAPEAU?$_Tree_node@U?$pair@$$CBEURegister_Modification@Driver@Avian@Infineon@@@std@@PEAX@0@AEBQEAU10@@Z
	??$_Construct_in_place@PEAU?$_Tree_node@U?$pair@$$CBIV?$vector@MV?$allocator@M@std@@@std@@@std@@PEAX@std@@AEAPEAU12@@std@@YAXAEAPEAU?$_Tree_node@U?$pair@$$CBIV?$vector@MV?$allocator@M@std@@@std@@@std@@PEAX@0@0@Z
	??$_Construct_in_place@PEAU?$_Tree_node@U?$pair@$$CBIV?$vector@MV?$allocator@M@std@@@std@@@std@@PEAX@std@@AEBQEAU12@@std@@YAXAEAPEAU?$_Tree_node@U?$pair@$$CBIV?$vector@MV?$allocator@M@std@@@std@@@std@@PEAX@0@AEBQEAU10@@Z
	??$_Construct_in_place@PEAU?$_Tree_node@U?$pair@$$CBV?$basic_string@DU?$char_traits@D@std@@V?$allocator@D@2@@std@@UAddress@?$NamedMemory@GI@@@std@@PEAX@std@@AEAPEAU12@@std@@YAXAEAPEAU?$_Tree_node@U?$pair@$$CBV?$basic_string@DU?$char_traits@D@std@@V?$allocator@D@2@@std@@UAddress@?$NamedMemory@GI@@@std@@PEAX@0@0@Z
	??$_Construct_in_place@PEAU?$_Tree_node@U?$pair@$$CBV?$basic_string@DU?$char_traits@D@std@@V?$allocator@D@2@@std@@UAddress@?$NamedMemory@GI@@@std@@PEAX@std@@AEBQEAU12@@std@@YAXAEAPEAU?$_Tree_node@U?$pair@$$CBV?$basic_string@DU?$char_traits@D@std@@V?$allocator@D@2@@std@@UAddress@?$NamedMemory@GI@@@std@@PEAX@0@AEBQEAU10@@Z
	??$_Construct_in_place@U_Container_proxy@std@@PEAU_Container_base12@2@@std@@YAXAEAU_Container_proxy@0@$$QEAPEAU_Container_base12@0@@Z
	??$_Construct_n@$$V@?$vector@GV?$allocator@G@std@@@std@@AEAAX_K@Z
	??$_Construct_n@$$V@?$vector@IV?$allocator@I@std@@@std@@AEAAX_K@Z
	??$_Construct_n@$$V@?$vector@MV?$allocator@M@std@@@std@@AEAAX_K@Z
	??$_Construct_n@PEBIPEBI@?$vector@IV?$allocator@I@std@@@std@@AEAAX_K$$QEAPEBI1@Z
	??$_Convert_size@_K_K@std@@YA_K_K@Z
	??$_Copy@$0A@@?$_Tree@V?$_Tmap_traits@EIU?$less@E@std@@V?$allocator@U?$pair@$$CBEI@std@@@2@$0A@@std@@@std@@IEAAXAEBV01@@Z
	??$_Copy@$0A@@?$_Tree@V?$_Tmap_traits@EURegister_Modification@Driver@Avian@Infineon@@U?$less@E@std@@V?$allocator@U?$pair@$$CBEURegister_Modification@Driver@Avian@Infineon@@@std@@@6@$0A@@std@@@std@@IEAAXAEBV01@@Z
	??$_Copy@$0A@@?$_Tree@V?$_Tmap_traits@V?$basic_string@DU?$char_traits@D@std@@V?$allocator@D@2@@std@@UAddress@?$NamedMemory@GI@@U?$less@V?$basic_string@DU?$char_traits@D@std@@V?$allocator@D@2@@std@@@2@V?$allocator@U?$pair@$$CBV?$basic_string@DU?$char_traits@D@std@@V?$allocator@D@2@@std@@UAddress@?$NamedMemory@GI@@@std@@@2@$0A@@std@@@std@@IEAAXAEBV01@@Z
	??$_Copy_backward_memmove@PEAIPEAI@std@@YAPEAIPEAI00@Z
	??$_Copy_construct_from@VIBridge@@@?$_Ptr_base@VIBridge@@@std@@IEAAXAEBV?$shared_ptr@VIBridge@@@1@@Z
	??$_Copy_memmove@PEAEPEAE@std@@YAPEAEPEAE00@Z
	??$_Copy_memmove@PEAIPEAI@std@@YAPEAIPEAI00@Z
	??$_Copy_memmove@PEBIPEAI@std@@YAPEAIPEBI0PEAI@Z
	??$_Copy_memmove@PEBUChannel_Set_Settings@Driver@Avian@Infineon@@PEAU1234@@std@@YAPEAUChannel_Set_Settings@Driver@Avian@Infineon@@PEBU1234@0PEAU1234@@Z
	??$_Copy_memmove@PEBUShape_Settings@Driver@Avian@Infineon@@PEAU1234@@std@@YAPEAUShape_Settings@Driver@Avian@Infineon@@PEBU1234@0PEAU1234@@Z
	??$_Copy_memmove_n@PEAIPEAI@std@@YAPEAIPEAI_K0@Z
	??$_Copy_nodes@$0A@@?$_Tree@V?$_Tmap_traits@EIU?$less@E@std@@V?$allocator@U?$pair@$$CBEI@std@@@2@$0A@@std@@@std@@IEAAPEAU?$_Tree_node@U?$pair@$$CBEI@std@@PEAX@1@PEAU21@0@Z
	??$_Copy_nodes@$0A@@?$_Tree@V?$_Tmap_traits@EURegister_Modification@Driver@Avian@Infineon@@U?$less@E@std@@V?$allocator@U?$pair@$$CBEURegister_Modification@Driver@Avian@Infineon@@@std@@@6@$0A@@std@@@std@@IEAAPEAU?$_Tree_node@U?$pair@$$CBEURegister_Modification@Driver@Avian@Infineon@@@std@@PEAX@1@PEAU21@0@Z
	??$_Copy_nodes@$0A@@?$_Tree@V?$_Tmap_traits@V?$basic_string@DU?$char_traits@D@std@@V?$allocator@D@2@@std@@UAddress@?$NamedMemory@GI@@U?$less@V?$basic_string@DU?$char_traits@D@std@@V?$allocator@D@2@@std@@@2@V?$allocator@U?$pair@$$CBV?$basic_string@DU?$char_traits@D@std@@V?$allocator@D@2@@std@@UAddress@?$NamedMemory@GI@@@std@@@2@$0A@@std@@@std@@IEAAPEAU?$_Tree_node@U?$pair@$$CBV?$basic_string@DU?$char_traits@D@std@@V?$allocator@D@2@@std@@UAddress@?$NamedMemory@GI@@@std@@PEAX@1@PEAU21@0@Z
	??$_Copy_or_move@$0A@U?$pair@$$CBEI@std@@@?$_Tree@V?$_Tmap_traits@EIU?$less@E@std@@V?$allocator@U?$pair@$$CBEI@std@@@2@$0A@@std@@@std@@IEAAPEAU?$_Tree_node@U?$pair@$$CBEI@std@@PEAX@1@AEAU?$pair@$$CBEI@1@@Z
	??$_Copy_or_move@$0A@U?$pair@$$CBEURegister_Modification@Driver@Avian@Infineon@@@std@@@?$_Tree@V?$_Tmap_traits@EURegister_Modification@Driver@Avian@Infineon@@U?$less@E@std@@V?$allocator@U?$pair@$$CBEURegister_Modification@Driver@Avian@Infineon@@@std@@@6@$0A@@std@@@std@@IEAAPEAU?$_Tree_node@U?$pair@$$CBEURegister_Modification@Driver@Avian@Infineon@@@std@@PEAX@1@AEAU?$pair@$$CBEURegister_Modification@Driver@Avian@Infineon@@@1@@Z
	??$_Copy_or_move@$0A@U?$pair@$$CBV?$basic_string@DU?$char_traits@D@std@@V?$allocator@D@2@@std@@UAddress@?$NamedMemory@GI@@@std@@@?$_Tree@V?$_Tmap_traits@V?$basic_string@DU?$char_traits@D@std@@V?$allocator@D@2@@std@@UAddress@?$NamedMemory@GI@@U?$less@V?$basic_string@DU?$char_traits@D@std@@V?$allocator@D@2@@std@@@2@V?$allocator@U?$pair@$$CBV?$basic_string@DU?$char_traits@D@std@@V?$allocator@D@2@@std@@UAddress@?$NamedMemory@GI@@@std@@@2@$0A@@std@@@std@@IEAAPEAU?$_Tree_node@U?$pair@$$CBV?$basic_string@DU?$char_traits@D@std@@V?$allocator@D@2@@std@@UAddress@?$NamedMemory@GI@@@std@@PEAX@1@AEAU?$pair@$$CBV?$basic_string@DU?$char_traits@D@std@@V?$allocator@D@2@@std@@UAddress@?$NamedMemory@GI@@@1@@Z
	??$_Copy_unchecked@PEAEPEAEPEAE@std@@YAPEAEPEAE00@Z
	??$_Copy_unchecked@PEBUChannel_Set_Settings@Driver@Avian@Infineon@@PEBU1234@PEAU1234@@std@@YAPEAUChannel_Set_Settings@Driver@Avian@Infineon@@PEBU1234@0PEAU1234@@Z
	??$_Copy_unchecked@PEBUShape_Settings@Driver@Avian@Infineon@@PEBU1234@PEAU1234@@std@@YAPEAUShape_Settings@Driver@Avian@Infineon@@PEBU1234@0PEAU1234@@Z
	??$_Deallocate@$07$0A@@std@@YAXPEAX_K@Z
	??$_Deallocate@$0BA@$0A@@std@@YAXPEAX_K@Z
	??$_Deallocate_plain@V?$allocator@U_Container_proxy@std@@@std@@@std@@YAXAEAV?$allocator@U_Container_proxy@std@@@0@QEAU_Container_proxy@0@@Z
	??$_Debug_lt_pred@AEBU?$less@E@std@@AEBEAEBE$0A@@std@@YA_NAEBU?$less@E@0@AEBE1@Z
	??$_Debug_lt_pred@AEBU?$less@I@std@@AEBIAEBI$0A@@std@@YA_NAEBU?$less@I@0@AEBI1@Z
	??$_Debug_lt_pred@AEBU?$less@V?$basic_string@DU?$char_traits@D@std@@V?$allocator@D@2@@std@@@std@@AEBV?$basic_string@DU?$char_traits@D@std@@V?$allocator@D@2@@2@AEBV32@$0A@@std@@YA_NAEBU?$less@V?$basic_string@DU?$char_traits@D@std@@V?$allocator@D@2@@std@@@0@AEBV?$basic_string@DU?$char_traits@D@std@@V?$allocator@D@2@@0@1@Z
	??$_Delete_plain_internal@V?$allocator@U_Container_proxy@std@@@std@@@std@@YAXAEAV?$allocator@U_Container_proxy@std@@@0@QEAU_Container_proxy@0@@Z
	??$_Destroy_in_place@PEAD@std@@YAXAEAPEAD@Z
	??$_Destroy_in_place@PEAU?$_List_node@UTimer@ModelBGT60TRxxC@TimingModel@Avian@Infineon@@PEAX@std@@@std@@YAXAEAPEAU?$_List_node@UTimer@ModelBGT60TRxxC@TimingModel@Avian@Infineon@@PEAX@0@@Z
	??$_Destroy_in_place@PEAU?$_Tree_node@U?$pair@$$CBEI@std@@PEAX@std@@@std@@YAXAEAPEAU?$_Tree_node@U?$pair@$$CBEI@std@@PEAX@0@@Z
	??$_Destroy_in_place@PEAU?$_Tree_node@U?$pair@$$CBEURegister_Modification@Driver@Avian@Infineon@@@std@@PEAX@std@@@std@@YAXAEAPEAU?$_Tree_node@U?$pair@$$CBEURegister_Modification@Driver@Avian@Infineon@@@std@@PEAX@0@@Z
	??$_Destroy_in_place@PEAU?$_Tree_node@U?$pair@$$CBIV?$vector@MV?$allocator@M@std@@@std@@@std@@PEAX@std@@@std@@YAXAEAPEAU?$_Tree_node@U?$pair@$$CBIV?$vector@MV?$allocator@M@std@@@std@@@std@@PEAX@0@@Z
	??$_Destroy_in_place@PEAU?$_Tree_node@U?$pair@$$CBV?$basic_string@DU?$char_traits@D@std@@V?$allocator@D@2@@std@@UAddress@?$NamedMemory@GI@@@std@@PEAX@std@@@std@@YAXAEAPEAU?$_Tree_node@U?$pair@$$CBV?$basic_string@DU?$char_traits@D@std@@V?$allocator@D@2@@std@@UAddress@?$NamedMemory@GI@@@std@@PEAX@0@@Z
	??$_Destroy_range@V?$allocator@G@std@@@std@@YAXPEAGQEAGAEAV?$allocator@G@0@@Z
	??$_Destroy_range@V?$allocator@I@std@@@std@@YAXPEAIQEAIAEAV?$allocator@I@0@@Z
	??$_Destroy_range@V?$allocator@M@std@@@std@@YAXPEAMQEAMAEAV?$allocator@M@0@@Z
	??$_Destroy_range@V?$allocator@UStateInfo@StateSequence@TimingModel@Avian@Infineon@@@std@@@std@@YAXPEAUStateInfo@StateSequence@TimingModel@Avian@Infineon@@QEAU12345@AEAV?$allocator@UStateInfo@StateSequence@TimingModel@Avian@Infineon@@@0@@Z
	??$_Emplace@AEAIAEAG@?$_Tree@V?$_Tmap_traits@IV?$vector@MV?$allocator@M@std@@@std@@U?$less@I@2@V?$allocator@U?$pair@$$CBIV?$vector@MV?$allocator@M@std@@@std@@@std@@@2@$0A@@std@@@std@@IEAA?AU?$pair@PEAU?$_Tree_node@U?$pair@$$CBIV?$vector@MV?$allocator@M@std@@@std@@@std@@PEAX@std@@_N@1@AEAIAEAG@Z
	??$_Emplace@AEAY0BB@$$CBDAEAY0M@$$CBDAEBG@?$list@UTimer@ModelBGT60TRxxC@TimingModel@Avian@Infineon@@V?$allocator@UTimer@ModelBGT60TRxxC@TimingModel@Avian@Infineon@@@std@@@std@@QEAAPEAU?$_List_node@UTimer@ModelBGT60TRxxC@TimingModel@Avian@Infineon@@PEAX@1@QEAU21@AEAY0BB@$$CBDAEAY0M@$$CBDAEBG@Z
	??$_Emplace@AEAY0BC@$$CBDAEAY04$$CBDAEBG@?$list@UTimer@ModelBGT60TRxxC@TimingModel@Avian@Infineon@@V?$allocator@UTimer@ModelBGT60TRxxC@TimingModel@Avian@Infineon@@@std@@@std@@QEAAPEAU?$_List_node@UTimer@ModelBGT60TRxxC@TimingModel@Avian@Infineon@@PEAX@1@QEAU21@AEAY0BC@$$CBDAEAY04$$CBDAEBG@Z
	??$_Emplace@AEAY0BF@$$CBDAEAY04$$CBDAEBG@?$list@UTimer@ModelBGT60TRxxC@TimingModel@Avian@Infineon@@V?$allocator@UTimer@ModelBGT60TRxxC@TimingModel@Avian@Infineon@@@std@@@std@@QEAAPEAU?$_List_node@UTimer@ModelBGT60TRxxC@TimingModel@Avian@Infineon@@PEAX@1@QEAU21@AEAY0BF@$$CBDAEAY04$$CBDAEBG@Z
	??$_Emplace@AEAY0L@$$CBDAEAY09$$CBDAEBG@?$list@UTimer@ModelBGT60TRxxC@TimingModel@Avian@Infineon@@V?$allocator@UTimer@ModelBGT60TRxxC@TimingModel@Avian@Infineon@@@std@@@std@@QEAAPEAU?$_List_node@UTimer@ModelBGT60TRxxC@TimingModel@Avian@Infineon@@PEAX@1@QEAU21@AEAY0L@$$CBDAEAY09$$CBDAEBG@Z
	??$_Emplace@AEAY0O@$$CBDAEAY07$$CBDAEBG@?$list@UTimer@ModelBGT60TRxxC@TimingModel@Avian@Infineon@@V?$allocator@UTimer@ModelBGT60TRxxC@TimingModel@Avian@Infineon@@@std@@@std@@QEAAPEAU?$_List_node@UTimer@ModelBGT60TRxxC@TimingModel@Avian@Infineon@@PEAX@1@QEAU21@AEAY0O@$$CBDAEAY07$$CBDAEBG@Z
	??$_Emplace@EAEAI@?$_Tree@V?$_Tmap_traits@EIU?$less@E@std@@V?$allocator@U?$pair@$$CBEI@std@@@2@$0A@@std@@@std@@IEAA?AU?$pair@PEAU?$_Tree_node@U?$pair@$$CBEI@std@@PEAX@std@@_N@1@$$QEAEAEAI@Z
	??$_Emplace_back@$$V@?$_Uninitialized_backout_al@V?$allocator@G@std@@@std@@QEAAXXZ
	??$_Emplace_back@$$V@?$_Uninitialized_backout_al@V?$allocator@I@std@@@std@@QEAAXXZ
	??$_Emplace_back@$$V@?$_Uninitialized_backout_al@V?$allocator@M@std@@@std@@QEAAXXZ
	??$_Emplace_back@AEAI@?$_Uninitialized_backout_al@V?$allocator@I@std@@@std@@QEAAXAEAI@Z
	??$_Emplace_back@AEBI@?$_Uninitialized_backout_al@V?$allocator@I@std@@@std@@QEAAXAEBI@Z
	??$_Emplace_back@I@?$_Uninitialized_backout_al@V?$allocator@I@std@@@std@@QEAAX$$QEAI@Z
	??$_Emplace_back@UStateInfo@StateSequence@TimingModel@Avian@Infineon@@@?$_Uninitialized_backout_al@V?$allocator@UStateInfo@StateSequence@TimingModel@Avian@Infineon@@@std@@@std@@QEAAX$$QEAUStateInfo@StateSequence@TimingModel@Avian@Infineon@@@Z
	??$_Emplace_back_with_unused_capacity@AEBI@?$vector@IV?$allocator@I@std@@@std@@AEAAAEAIAEBI@Z
	??$_Emplace_back_with_unused_capacity@AEBUStateInfo@StateSequence@TimingModel@Avian@Infineon@@@?$vector@UStateInfo@StateSequence@TimingModel@Avian@Infineon@@V?$allocator@UStateInfo@StateSequence@TimingModel@Avian@Infineon@@@std@@@std@@AEAAAEAUStateInfo@StateSequence@TimingModel@Avian@Infineon@@AEBU23456@@Z
	??$_Emplace_back_with_unused_capacity@I@?$vector@IV?$allocator@I@std@@@std@@AEAAAEAI$$QEAI@Z
	??$_Emplace_hint@AEBU?$pair@$$CBV?$basic_string@DU?$char_traits@D@std@@V?$allocator@D@2@@std@@UAddress@?$NamedMemory@GI@@@std@@@?$_Tree@V?$_Tmap_traits@V?$basic_string@DU?$char_traits@D@std@@V?$allocator@D@2@@std@@UAddress@?$NamedMemory@GI@@U?$less@V?$basic_string@DU?$char_traits@D@std@@V?$allocator@D@2@@std@@@2@V?$allocator@U?$pair@$$CBV?$basic_string@DU?$char_traits@D@std@@V?$allocator@D@2@@std@@UAddress@?$NamedMemory@GI@@@std@@@2@$0A@@std@@@std@@IEAAPEAU?$_Tree_node@U?$pair@$$CBV?$basic_string@DU?$char_traits@D@std@@V?$allocator@D@2@@std@@UAddress@?$NamedMemory@GI@@@std@@PEAX@1@QEAU21@AEBU?$pair@$$CBV?$basic_string@DU?$char_traits@D@std@@V?$allocator@D@2@@std@@UAddress@?$NamedMemory@GI@@@1@@Z
	??$_Emplace_one_at_back@AEBI@?$vector@IV?$allocator@I@std@@@std@@AEAAAEAIAEBI@Z
	??$_Emplace_one_at_back@AEBUStateInfo@StateSequence@TimingModel@Avian@Infineon@@@?$vector@UStateInfo@StateSequence@TimingModel@Avian@Infineon@@V?$allocator@UStateInfo@StateSequence@TimingModel@Avian@Infineon@@@std@@@std@@AEAAAEAUStateInfo@StateSequence@TimingModel@Avian@Infineon@@AEBU23456@@Z
	??$_Emplace_one_at_back@I@?$vector@IV?$allocator@I@std@@@std@@AEAAAEAI$$QEAI@Z
	??$_Emplace_reallocate@AEBI@?$vector@IV?$allocator@I@std@@@std@@AEAAPEAIQEAIAEBI@Z
	??$_Emplace_reallocate@AEBUStateInfo@StateSequence@TimingModel@Avian@Infineon@@@?$vector@UStateInfo@StateSequence@TimingModel@Avian@Infineon@@V?$allocator@UStateInfo@StateSequence@TimingModel@Avian@Infineon@@@std@@@std@@AEAAPEAUStateInfo@StateSequence@TimingModel@Avian@Infineon@@QEAU23456@AEBU23456@@Z
	??$_Emplace_reallocate@I@?$vector@IV?$allocator@I@std@@@std@@AEAAPEAIQEAI$$QEAI@Z
	??$_Erase_head@V?$allocator@U?$_Tree_node@U?$pair@$$CBEI@std@@PEAX@std@@@std@@@?$_Tree_val@U?$_Tree_simple_types@U?$pair@$$CBEI@std@@@std@@@std@@QEAAXAEAV?$allocator@U?$_Tree_node@U?$pair@$$CBEI@std@@PEAX@std@@@1@@Z
	??$_Erase_head@V?$allocator@U?$_Tree_node@U?$pair@$$CBEURegister_Modification@Driver@Avian@Infineon@@@std@@PEAX@std@@@std@@@?$_Tree_val@U?$_Tree_simple_types@U?$pair@$$CBEURegister_Modification@Driver@Avian@Infineon@@@std@@@std@@@std@@QEAAXAEAV?$allocator@U?$_Tree_node@U?$pair@$$CBEURegister_Modification@Driver@Avian@Infineon@@@std@@PEAX@std@@@1@@Z
	??$_Erase_head@V?$allocator@U?$_Tree_node@U?$pair@$$CBIV?$vector@MV?$allocator@M@std@@@std@@@std@@PEAX@std@@@std@@@?$_Tree_val@U?$_Tree_simple_types@U?$pair@$$CBIV?$vector@MV?$allocator@M@std@@@std@@@std@@@std@@@std@@QEAAXAEAV?$allocator@U?$_Tree_node@U?$pair@$$CBIV?$vector@MV?$allocator@M@std@@@std@@@std@@PEAX@std@@@1@@Z
	??$_Erase_head@V?$allocator@U?$_Tree_node@U?$pair@$$CBV?$basic_string@DU?$char_traits@D@std@@V?$allocator@D@2@@std@@UAddress@?$NamedMemory@GI@@@std@@PEAX@std@@@std@@@?$_Tree_val@U?$_Tree_simple_types@U?$pair@$$CBV?$basic_string@DU?$char_traits@D@std@@V?$allocator@D@2@@std@@UAddress@?$NamedMemory@GI@@@std@@@std@@@std@@QEAAXAEAV?$allocator@U?$_Tree_node@U?$pair@$$CBV?$basic_string@DU?$char_traits@D@std@@V?$allocator@D@2@@std@@UAddress@?$NamedMemory@GI@@@std@@PEAX@std@@@1@@Z
	??$_Erase_tree@V?$allocator@U?$_Tree_node@U?$pair@$$CBEI@std@@PEAX@std@@@std@@@?$_Tree_val@U?$_Tree_simple_types@U?$pair@$$CBEI@std@@@std@@@std@@QEAAXAEAV?$allocator@U?$_Tree_node@U?$pair@$$CBEI@std@@PEAX@std@@@1@PEAU?$_Tree_node@U?$pair@$$CBEI@std@@PEAX@1@@Z
	??$_Erase_tree@V?$allocator@U?$_Tree_node@U?$pair@$$CBEURegister_Modification@Driver@Avian@Infineon@@@std@@PEAX@std@@@std@@@?$_Tree_val@U?$_Tree_simple_types@U?$pair@$$CBEURegister_Modification@Driver@Avian@Infineon@@@std@@@std@@@std@@QEAAXAEAV?$allocator@U?$_Tree_node@U?$pair@$$CBEURegister_Modification@Driver@Avian@Infineon@@@std@@PEAX@std@@@1@PEAU?$_Tree_node@U?$pair@$$CBEURegister_Modification@Driver@Avian@Infineon@@@std@@PEAX@1@@Z
	??$_Erase_tree@V?$allocator@U?$_Tree_node@U?$pair@$$CBIV?$vector@MV?$allocator@M@std@@@std@@@std@@PEAX@std@@@std@@@?$_Tree_val@U?$_Tree_simple_types@U?$pair@$$CBIV?$vector@MV?$allocator@M@std@@@std@@@std@@@std@@@std@@QEAAXAEAV?$allocator@U?$_Tree_node@U?$pair@$$CBIV?$vector@MV?$allocator@M@std@@@std@@@std@@PEAX@std@@@1@PEAU?$_Tree_node@U?$pair@$$CBIV?$vector@MV?$allocator@M@std@@@std@@@std@@PEAX@1@@Z
	??$_Erase_tree@V?$allocator@U?$_Tree_node@U?$pair@$$CBV?$basic_string@DU?$char_traits@D@std@@V?$allocator@D@2@@std@@UAddress@?$NamedMemory@GI@@@std@@PEAX@std@@@std@@@?$_Tree_val@U?$_Tree_simple_types@U?$pair@$$CBV?$basic_string@DU?$char_traits@D@std@@V?$allocator@D@2@@std@@UAddress@?$NamedMemory@GI@@@std@@@std@@@std@@QEAAXAEAV?$allocator@U?$_Tree_node@U?$pair@$$CBV?$basic_string@DU?$char_traits@D@std@@V?$allocator@D@2@@std@@UAddress@?$NamedMemory@GI@@@std@@PEAX@std@@@1@PEAU?$_Tree_node@U?$pair@$$CBV?$basic_string@DU?$char_traits@D@std@@V?$allocator@D@2@@std@@UAddress@?$NamedMemory@GI@@@std@@PEAX@1@@Z
	??$_Erase_tree_and_orphan@V?$allocator@U?$_Tree_node@U?$pair@$$CBEI@std@@PEAX@std@@@std@@@?$_Tree_val@U?$_Tree_simple_types@U?$pair@$$CBEI@std@@@std@@@std@@QEAAXAEAV?$allocator@U?$_Tree_node@U?$pair@$$CBEI@std@@PEAX@std@@@1@PEAU?$_Tree_node@U?$pair@$$CBEI@std@@PEAX@1@@Z
	??$_Erase_tree_and_orphan@V?$allocator@U?$_Tree_node@U?$pair@$$CBEURegister_Modification@Driver@Avian@Infineon@@@std@@PEAX@std@@@std@@@?$_Tree_val@U?$_Tree_simple_types@U?$pair@$$CBEURegister_Modification@Driver@Avian@Infineon@@@std@@@std@@@std@@QEAAXAEAV?$allocator@U?$_Tree_node@U?$pair@$$CBEURegister_Modification@Driver@Avian@Infineon@@@std@@PEAX@std@@@1@PEAU?$_Tree_node@U?$pair@$$CBEURegister_Modification@Driver@Avian@Infineon@@@std@@PEAX@1@@Z
	??$_Erase_tree_and_orphan@V?$allocator@U?$_Tree_node@U?$pair@$$CBV?$basic_string@DU?$char_traits@D@std@@V?$allocator@D@2@@std@@UAddress@?$NamedMemory@GI@@@std@@PEAX@std@@@std@@@?$_Tree_val@U?$_Tree_simple_types@U?$pair@$$CBV?$basic_string@DU?$char_traits@D@std@@V?$allocator@D@2@@std@@UAddress@?$NamedMemory@GI@@@std@@@std@@@std@@QEAAXAEAV?$allocator@U?$_Tree_node@U?$pair@$$CBV?$basic_string@DU?$char_traits@D@std@@V?$allocator@D@2@@std@@UAddress@?$NamedMemory@GI@@@std@@PEAX@std@@@1@PEAU?$_Tree_node@U?$pair@$$CBV?$basic_string@DU?$char_traits@D@std@@V?$allocator@D@2@@std@@UAddress@?$NamedMemory@GI@@@std@@PEAX@1@@Z
	??$_Find@E@?$_Tree@V?$_Tmap_traits@EIU?$less@E@std@@V?$allocator@U?$pair@$$CBEI@std@@@2@$0A@@std@@@std@@AEBAPEAU?$_Tree_node@U?$pair@$$CBEI@std@@PEAX@1@AEBE@Z
	??$_Find_hint@V?$basic_string@DU?$char_traits@D@std@@V?$allocator@D@2@@std@@@?$_Tree@V?$_Tmap_traits@V?$basic_string@DU?$char_traits@D@std@@V?$allocator@D@2@@std@@UAddress@?$NamedMemory@GI@@U?$less@V?$basic_string@DU?$char_traits@D@std@@V?$allocator@D@2@@std@@@2@V?$allocator@U?$pair@$$CBV?$basic_string@DU?$char_traits@D@std@@V?$allocator@D@2@@std@@UAddress@?$NamedMemory@GI@@@std@@@2@$0A@@std@@@std@@IEBA?AU?$_Tree_find_hint_result@PEAU?$_Tree_node@U?$pair@$$CBV?$basic_string@DU?$char_traits@D@std@@V?$allocator@D@2@@std@@UAddress@?$NamedMemory@GI@@@std@@PEAX@std@@@1@QEAU?$_Tree_node@U?$pair@$$CBV?$basic_string@DU?$char_traits@D@std@@V?$allocator@D@2@@std@@UAddress@?$NamedMemory@GI@@@std@@PEAX@1@AEBV?$basic_string@DU?$char_traits@D@std@@V?$allocator@D@2@@1@@Z
	??$_Find_lower_bound@E@?$_Tree@V?$_Tmap_traits@EIU?$less@E@std@@V?$allocator@U?$pair@$$CBEI@std@@@2@$0A@@std@@@std@@IEBA?AU?$_Tree_find_result@PEAU?$_Tree_node@U?$pair@$$CBEI@std@@PEAX@std@@@1@AEBE@Z
	??$_Find_lower_bound@E@?$_Tree@V?$_Tmap_traits@EURegister_Modification@Driver@Avian@Infineon@@U?$less@E@std@@V?$allocator@U?$pair@$$CBEURegister_Modification@Driver@Avian@Infineon@@@std@@@6@$0A@@std@@@std@@IEBA?AU?$_Tree_find_result@PEAU?$_Tree_node@U?$pair@$$CBEURegister_Modification@Driver@Avian@Infineon@@@std@@PEAX@std@@@1@AEBE@Z
	??$_Find_lower_bound@I@?$_Tree@V?$_Tmap_traits@IV?$vector@MV?$allocator@M@std@@@std@@U?$less@I@2@V?$allocator@U?$pair@$$CBIV?$vector@MV?$allocator@M@std@@@std@@@std@@@2@$0A@@std@@@std@@IEBA?AU?$_Tree_find_result@PEAU?$_Tree_node@U?$pair@$$CBIV?$vector@MV?$allocator@M@std@@@std@@@std@@PEAX@std@@@1@AEBI@Z
	??$_Find_lower_bound@V?$basic_string@DU?$char_traits@D@std@@V?$allocator@D@2@@std@@@?$_Tree@V?$_Tmap_traits@V?$basic_string@DU?$char_traits@D@std@@V?$allocator@D@2@@std@@UAddress@?$NamedMemory@GI@@U?$less@V?$basic_string@DU?$char_traits@D@std@@V?$allocator@D@2@@std@@@2@V?$allocator@U?$pair@$$CBV?$basic_string@DU?$char_traits@D@std@@V?$allocator@D@2@@std@@UAddress@?$NamedMemory@GI@@@std@@@2@$0A@@std@@@std@@IEBA?AU?$_Tree_find_result@PEAU?$_Tree_node@U?$pair@$$CBV?$basic_string@DU?$char_traits@D@std@@V?$allocator@D@2@@std@@UAddress@?$NamedMemory@GI@@@std@@PEAX@std@@@1@AEBV?$basic_string@DU?$char_traits@D@std@@V?$allocator@D@2@@1@@Z
	??$_Free_non_head@V?$allocator@U?$_List_node@UTimer@ModelBGT60TRxxC@TimingModel@Avian@Infineon@@PEAX@std@@@std@@@?$_List_node@UTimer@ModelBGT60TRxxC@TimingModel@Avian@Infineon@@PEAX@std@@SAXAEAV?$allocator@U?$_List_node@UTimer@ModelBGT60TRxxC@TimingModel@Avian@Infineon@@PEAX@std@@@1@PEAU01@@Z
	??$_Freenode0@V?$allocator@U?$_List_node@UTimer@ModelBGT60TRxxC@TimingModel@Avian@Infineon@@PEAX@std@@@std@@@?$_List_node@UTimer@ModelBGT60TRxxC@TimingModel@Avian@Infineon@@PEAX@std@@SAXAEAV?$allocator@U?$_List_node@UTimer@ModelBGT60TRxxC@TimingModel@Avian@Infineon@@PEAX@std@@@1@PEAU01@@Z
	??$_Freenode0@V?$allocator@U?$_Tree_node@U?$pair@$$CBEI@std@@PEAX@std@@@std@@@?$_Tree_node@U?$pair@$$CBEI@std@@PEAX@std@@SAXAEAV?$allocator@U?$_Tree_node@U?$pair@$$CBEI@std@@PEAX@std@@@1@PEAU01@@Z
	??$_Freenode0@V?$allocator@U?$_Tree_node@U?$pair@$$CBEURegister_Modification@Driver@Avian@Infineon@@@std@@PEAX@std@@@std@@@?$_Tree_node@U?$pair@$$CBEURegister_Modification@Driver@Avian@Infineon@@@std@@PEAX@std@@SAXAEAV?$allocator@U?$_Tree_node@U?$pair@$$CBEURegister_Modification@Driver@Avian@Infineon@@@std@@PEAX@std@@@1@PEAU01@@Z
	??$_Freenode0@V?$allocator@U?$_Tree_node@U?$pair@$$CBIV?$vector@MV?$allocator@M@std@@@std@@@std@@PEAX@std@@@std@@@?$_Tree_node@U?$pair@$$CBIV?$vector@MV?$allocator@M@std@@@std@@@std@@PEAX@std@@SAXAEAV?$allocator@U?$_Tree_node@U?$pair@$$CBIV?$vector@MV?$allocator@M@std@@@std@@@std@@PEAX@std@@@1@PEAU01@@Z
	??$_Freenode0@V?$allocator@U?$_Tree_node@U?$pair@$$CBV?$basic_string@DU?$char_traits@D@std@@V?$allocator@D@2@@std@@UAddress@?$NamedMemory@GI@@@std@@PEAX@std@@@std@@@?$_Tree_node@U?$pair@$$CBV?$basic_string@DU?$char_traits@D@std@@V?$allocator@D@2@@std@@UAddress@?$NamedMemory@GI@@@std@@PEAX@std@@SAXAEAV?$allocator@U?$_Tree_node@U?$pair@$$CBV?$basic_string@DU?$char_traits@D@std@@V?$allocator@D@2@@std@@UAddress@?$NamedMemory@GI@@@std@@PEAX@std@@@1@PEAU01@@Z
	??$_Freenode@V?$allocator@U?$_List_node@UTimer@ModelBGT60TRxxC@TimingModel@Avian@Infineon@@PEAX@std@@@std@@@?$_List_node@UTimer@ModelBGT60TRxxC@TimingModel@Avian@Infineon@@PEAX@std@@SAXAEAV?$allocator@U?$_List_node@UTimer@ModelBGT60TRxxC@TimingModel@Avian@Infineon@@PEAX@std@@@1@PEAU01@@Z
	??$_Freenode@V?$allocator@U?$_Tree_node@U?$pair@$$CBEI@std@@PEAX@std@@@std@@@?$_Tree_node@U?$pair@$$CBEI@std@@PEAX@std@@SAXAEAV?$allocator@U?$_Tree_node@U?$pair@$$CBEI@std@@PEAX@std@@@1@PEAU01@@Z
	??$_Freenode@V?$allocator@U?$_Tree_node@U?$pair@$$CBEURegister_Modification@Driver@Avian@Infineon@@@std@@PEAX@std@@@std@@@?$_Tree_node@U?$pair@$$CBEURegister_Modification@Driver@Avian@Infineon@@@std@@PEAX@std@@SAXAEAV?$allocator@U?$_Tree_node@U?$pair@$$CBEURegister_Modification@Driver@Avian@Infineon@@@std@@PEAX@std@@@1@PEAU01@@Z
	??$_Freenode@V?$allocator@U?$_Tree_node@U?$pair@$$CBIV?$vector@MV?$allocator@M@std@@@std@@@std@@PEAX@std@@@std@@@?$_Tree_node@U?$pair@$$CBIV?$vector@MV?$allocator@M@std@@@std@@@std@@PEAX@std@@SAXAEAV?$allocator@U?$_Tree_node@U?$pair@$$CBIV?$vector@MV?$allocator@M@std@@@std@@@std@@PEAX@std@@@1@PEAU01@@Z
	??$_Freenode@V?$allocator@U?$_Tree_node@U?$pair@$$CBV?$basic_string@DU?$char_traits@D@std@@V?$allocator@D@2@@std@@UAddress@?$NamedMemory@GI@@@std@@PEAX@std@@@std@@@?$_Tree_node@U?$pair@$$CBV?$basic_string@DU?$char_traits@D@std@@V?$allocator@D@2@@std@@UAddress@?$NamedMemory@GI@@@std@@PEAX@std@@SAXAEAV?$allocator@U?$_Tree_node@U?$pair@$$CBV?$basic_string@DU?$char_traits@D@std@@V?$allocator@D@2@@std@@UAddress@?$NamedMemory@GI@@@std@@PEAX@std@@@1@PEAU01@@Z
	??$_Get_size_of_n@$00@std@@YA_K_K@Z
	??$_Get_size_of_n@$01@std@@YA_K_K@Z
	??$_Get_size_of_n@$03@std@@YA_K_K@Z
	??$_Get_size_of_n@$0BA@@std@@YA_K_K@Z
	??$_Get_size_of_n@$0CI@@std@@YA_K_K@Z
	??$_Get_size_of_n@$0EI@@std@@YA_K_K@Z
	??$_Get_size_of_n@$0FI@@std@@YA_K_K@Z
	??$_Get_size_of_n@$0II@@std@@YA_K_K@Z
	??$_Get_size_of_n@$0KI@@std@@YA_K_K@Z
	??$_Get_unwrapped@AEAPEAD@std@@YA?A_TAEAPEAD@Z
	??$_Get_unwrapped@AEAPEAE@std@@YA?A_TAEAPEAE@Z
	??$_Get_unwrapped@AEAPEBI@std@@YA?A_TAEAPEBI@Z
	??$_Get_unwrapped@AEAPEBUChannel_Set_Settings@Driver@Avian@Infineon@@@std@@YA?A_TAEAPEBUChannel_Set_Settings@Driver@Avian@Infineon@@@Z
	??$_Get_unwrapped@AEAPEBUShape_Settings@Driver@Avian@Infineon@@@std@@YA?A_TAEAPEBUShape_Settings@Driver@Avian@Infineon@@@Z
	??$_Get_unwrapped@AEAV?$_Array_iterator@I$01@std@@@std@@YA?A_TAEAV?$_Array_iterator@I$01@0@@Z
	??$_Get_unwrapped@AEBQEAI@std@@YA?A_TAEBQEAI@Z
	??$_Get_unwrapped@AEBQEAUStateInfo@StateSequence@TimingModel@Avian@Infineon@@@std@@YA?A_TAEBQEAUStateInfo@StateSequence@TimingModel@Avian@Infineon@@@Z
	??$_Get_unwrapped@PEAI@std@@YA?A_T$$QEAPEAI@Z
	??$_Get_unwrapped@PEBI@std@@YA?A_T$$QEAPEBI@Z
	??$_Get_unwrapped_n@AEAPEAE_J@std@@YA?A_TAEAPEAE_J@Z
	??$_Get_unwrapped_n@AEAPEAUChannel_Set_Settings@Driver@Avian@Infineon@@_J@std@@YA?A_TAEAPEAUChannel_Set_Settings@Driver@Avian@Infineon@@_J@Z
	??$_Get_unwrapped_n@AEAPEAUShape_Settings@Driver@Avian@Infineon@@_J@std@@YA?A_TAEAPEAUShape_Settings@Driver@Avian@Infineon@@_J@Z
	??$_Getvals@_W@?$time_get@DV?$istreambuf_iterator@DU?$char_traits@D@std@@@std@@@std@@IEAAX_WAEBV_Locinfo@1@@Z
	??$_Getvals@_W@?$time_get@_WV?$istreambuf_iterator@_WU?$char_traits@_W@std@@@std@@@std@@IEAAX_WAEBV_Locinfo@1@@Z
	??$_Global_new@V?$_Func_impl_no_alloc@V<lambda_fe68efc729bc7c1d7a5ab8f29f62bec5>@@XI@std@@AEAV<lambda_fe68efc729bc7c1d7a5ab8f29f62bec5>@@@std@@YAPEAV?$_Func_impl_no_alloc@V<lambda_fe68efc729bc7c1d7a5ab8f29f62bec5>@@XI@0@AEAV<lambda_fe68efc729bc7c1d7a5ab8f29f62bec5>@@@Z
	??$_Global_new@V?$_Func_impl_no_alloc@V<lambda_fe68efc729bc7c1d7a5ab8f29f62bec5>@@XI@std@@AEBV<lambda_fe68efc729bc7c1d7a5ab8f29f62bec5>@@@std@@YAPEAV?$_Func_impl_no_alloc@V<lambda_fe68efc729bc7c1d7a5ab8f29f62bec5>@@XI@0@AEBV<lambda_fe68efc729bc7c1d7a5ab8f29f62bec5>@@@Z
	??$_Idl_distance@PEAEPEAE@std@@YA?A_PAEBQEAE0@Z
	??$_Idl_distance@PEBUChannel_Set_Settings@Driver@Avian@Infineon@@PEBU1234@@std@@YA?A_PAEBQEBUChannel_Set_Settings@Driver@Avian@Infineon@@0@Z
	??$_Idl_distance@PEBUShape_Settings@Driver@Avian@Infineon@@PEBU1234@@std@@YA?A_PAEBQEBUShape_Settings@Driver@Avian@Infineon@@0@Z
	??$_Insert_counted_range@PEAI@?$vector@IV?$allocator@I@std@@@std@@AEAAXV?$_Vector_const_iterator@V?$_Vector_val@U?$_Simple_types@I@std@@@std@@@1@PEAI_K@Z
	??$_Insert_range_unchecked@PEBU?$pair@$$CBV?$basic_string@DU?$char_traits@D@std@@V?$allocator@D@2@@std@@UAddress@?$NamedMemory@GI@@@std@@PEBU12@@?$_Tree@V?$_Tmap_traits@V?$basic_string@DU?$char_traits@D@std@@V?$allocator@D@2@@std@@UAddress@?$NamedMemory@GI@@U?$less@V?$basic_string@DU?$char_traits@D@std@@V?$allocator@D@2@@std@@@2@V?$allocator@U?$pair@$$CBV?$basic_string@DU?$char_traits@D@std@@V?$allocator@D@2@@std@@UAddress@?$NamedMemory@GI@@@std@@@2@$0A@@std@@@std@@IEAAXPEBU?$pair@$$CBV?$basic_string@DU?$char_traits@D@std@@V?$allocator@D@2@@std@@UAddress@?$NamedMemory@GI@@@1@QEBU21@@Z
	??$_Insert_string@DU?$char_traits@D@std@@_K@std@@YAAEAV?$basic_ostream@DU?$char_traits@D@std@@@0@AEAV10@QEBD_K@Z
	??$_Integral_to_string@DH@std@@YA?AV?$basic_string@DU?$char_traits@D@std@@V?$allocator@D@2@@0@H@Z
	??$_Kfn@$$CBEI@?$_Tmap_traits@EIU?$less@E@std@@V?$allocator@U?$pair@$$CBEI@std@@@2@$0A@@std@@SAAEBEAEBU?$pair@$$CBEI@1@@Z
	??$_Kfn@$$CBEURegister_Modification@Driver@Avian@Infineon@@@?$_Tmap_traits@EURegister_Modification@Driver@Avian@Infineon@@U?$less@E@std@@V?$allocator@U?$pair@$$CBEURegister_Modification@Driver@Avian@Infineon@@@std@@@6@$0A@@std@@SAAEBEAEBU?$pair@$$CBEURegister_Modification@Driver@Avian@Infineon@@@1@@Z
	??$_Kfn@$$CBIV?$vector@MV?$allocator@M@std@@@std@@@?$_Tmap_traits@IV?$vector@MV?$allocator@M@std@@@std@@U?$less@I@2@V?$allocator@U?$pair@$$CBIV?$vector@MV?$allocator@M@std@@@std@@@std@@@2@$0A@@std@@SAAEBIAEBU?$pair@$$CBIV?$vector@MV?$allocator@M@std@@@std@@@1@@Z
	??$_Kfn@$$CBV?$basic_string@DU?$char_traits@D@std@@V?$allocator@D@2@@std@@UAddress@?$NamedMemory@GI@@@?$_Tmap_traits@V?$basic_string@DU?$char_traits@D@std@@V?$allocator@D@2@@std@@UAddress@?$NamedMemory@GI@@U?$less@V?$basic_string@DU?$char_traits@D@std@@V?$allocator@D@2@@std@@@2@V?$allocator@U?$pair@$$CBV?$basic_string@DU?$char_traits@D@std@@V?$allocator@D@2@@std@@UAddress@?$NamedMemory@GI@@@std@@@2@$0A@@std@@SAAEBV?$basic_string@DU?$char_traits@D@std@@V?$allocator@D@2@@1@AEBU?$pair@$$CBV?$basic_string@DU?$char_traits@D@std@@V?$allocator@D@2@@std@@UAddress@?$NamedMemory@GI@@@1@@Z
	??$_Lower_bound_duplicate@E@?$_Tree@V?$_Tmap_traits@EIU?$less@E@std@@V?$allocator@U?$pair@$$CBEI@std@@@2@$0A@@std@@@std@@IEBA_NQEAU?$_Tree_node@U?$pair@$$CBEI@std@@PEAX@1@AEBE@Z
	??$_Lower_bound_duplicate@E@?$_Tree@V?$_Tmap_traits@EURegister_Modification@Driver@Avian@Infineon@@U?$less@E@std@@V?$allocator@U?$pair@$$CBEURegister_Modification@Driver@Avian@Infineon@@@std@@@6@$0A@@std@@@std@@IEBA_NQEAU?$_Tree_node@U?$pair@$$CBEURegister_Modification@Driver@Avian@Infineon@@@std@@PEAX@1@AEBE@Z
	??$_Lower_bound_duplicate@I@?$_Tree@V?$_Tmap_traits@IV?$vector@MV?$allocator@M@std@@@std@@U?$less@I@2@V?$allocator@U?$pair@$$CBIV?$vector@MV?$allocator@M@std@@@std@@@std@@@2@$0A@@std@@@std@@IEBA_NQEAU?$_Tree_node@U?$pair@$$CBIV?$vector@MV?$allocator@M@std@@@std@@@std@@PEAX@1@AEBI@Z
	??$_Lower_bound_duplicate@V?$basic_string@DU?$char_traits@D@std@@V?$allocator@D@2@@std@@@?$_Tree@V?$_Tmap_traits@V?$basic_string@DU?$char_traits@D@std@@V?$allocator@D@2@@std@@UAddress@?$NamedMemory@GI@@U?$less@V?$basic_string@DU?$char_traits@D@std@@V?$allocator@D@2@@std@@@2@V?$allocator@U?$pair@$$CBV?$basic_string@DU?$char_traits@D@std@@V?$allocator@D@2@@std@@UAddress@?$NamedMemory@GI@@@std@@@2@$0A@@std@@@std@@IEBA_NQEAU?$_Tree_node@U?$pair@$$CBV?$basic_string@DU?$char_traits@D@std@@V?$allocator@D@2@@std@@UAddress@?$NamedMemory@GI@@@std@@PEAX@1@AEBV?$basic_string@DU?$char_traits@D@std@@V?$allocator@D@2@@1@@Z
	??$_Maklocstr@D@std@@YAPEADPEBDPEADAEBU_Cvtvec@@@Z
	??$_Maklocstr@_W@std@@YAPEA_WPEBDPEA_WAEBU_Cvtvec@@@Z
	??$_Move_backward_unchecked@PEAIPEAI@std@@YAPEAIPEAI00@Z
	??$_Move_unchecked@PEAIPEAI@std@@YAPEAIPEAI00@Z
	??$_Pocca@V?$allocator@D@std@@@std@@YAXAEAV?$allocator@D@0@AEBV10@@Z
	??$_Pocca@V?$allocator@U?$_Tree_node@U?$pair@$$CBEI@std@@PEAX@std@@@std@@@std@@YAXAEAV?$allocator@U?$_Tree_node@U?$pair@$$CBEI@std@@PEAX@std@@@0@AEBV10@@Z
	??$_Pocca@V?$allocator@U?$_Tree_node@U?$pair@$$CBEURegister_Modification@Driver@Avian@Infineon@@@std@@PEAX@std@@@std@@@std@@YAXAEAV?$allocator@U?$_Tree_node@U?$pair@$$CBEURegister_Modification@Driver@Avian@Infineon@@@std@@PEAX@std@@@0@AEBV10@@Z
	??$_Pocma@V?$allocator@D@std@@@std@@YAXAEAV?$allocator@D@0@0@Z
	??$_Popcount_fallback@K@std@@YAHK@Z
	??$_Reallocate@$0A@@?$vector@IV?$allocator@I@std@@@std@@AEAAXAEA_K@Z
	??$_Reallocate_for@V<lambda_66f57f934f28d61049862f64df852ff0>@@PEBD@?$basic_string@DU?$char_traits@D@std@@V?$allocator@D@2@@std@@AEAAAEAV01@_KV<lambda_66f57f934f28d61049862f64df852ff0>@@PEBD@Z
	??$_Reallocate_grow_by@V<lambda_65e615be2a453ca0576c979606f46740>@@PEBD_K@?$basic_string@DU?$char_traits@D@std@@V?$allocator@D@2@@std@@AEAAAEAV01@_KV<lambda_65e615be2a453ca0576c979606f46740>@@PEBD_K@Z
	??$_Reallocate_grow_by@V<lambda_f3a66ab6a0570788f31503db83886f49>@@_KPEBD_K@?$basic_string@DU?$char_traits@D@std@@V?$allocator@D@2@@std@@AEAAAEAV01@_KV<lambda_f3a66ab6a0570788f31503db83886f49>@@_KPEBD2@Z
	??$_Reset@AEAV<lambda_fe68efc729bc7c1d7a5ab8f29f62bec5>@@@?$_Func_class@XI@std@@IEAAXAEAV<lambda_fe68efc729bc7c1d7a5ab8f29f62bec5>@@@Z
	??$_Seek_wrapped@PEAEPEAE@std@@YAXAEAPEAE$$QEAPEAE@Z
	??$_Seek_wrapped@PEAUChannel_Set_Settings@Driver@Avian@Infineon@@PEAU1234@@std@@YAXAEAPEAUChannel_Set_Settings@Driver@Avian@Infineon@@$$QEAPEAU1234@@Z
	??$_Seek_wrapped@PEAUShape_Settings@Driver@Avian@Infineon@@PEAU1234@@std@@YAXAEAPEAUShape_Settings@Driver@Avian@Infineon@@$$QEAPEAU1234@@Z
	??$_Select_popcount_impl@KV<lambda_c1360b9bf268940e784deeafc1e34478>@@@std@@YA?A_TV<lambda_c1360b9bf268940e784deeafc1e34478>@@@Z
	??$_Test_callable@V<lambda_fe68efc729bc7c1d7a5ab8f29f62bec5>@@@std@@YA_NAEBV<lambda_fe68efc729bc7c1d7a5ab8f29f62bec5>@@@Z
	??$_To_absolute_time@_JU?$ratio@$00$00@std@@@std@@YA?A_PAEBV?$duration@_JU?$ratio@$00$00@std@@@chrono@0@@Z
	??$_To_absolute_time@_JU?$ratio@$00$0PECEA@@std@@@std@@YA?A_PAEBV?$duration@_JU?$ratio@$00$0PECEA@@std@@@chrono@0@@Z
	??$_To_address@PEAE@std@@YA?A_PAEBQEAE@Z
	??$_To_address@PEAG@std@@YA?A_PAEBQEAG@Z
	??$_To_address@PEAI@std@@YA?A_PAEBQEAI@Z
	??$_To_address@PEAM@std@@YA?A_PAEBQEAM@Z
	??$_To_address@PEAUChannel_Set_Settings@Driver@Avian@Infineon@@@std@@YA?A_PAEBQEAUChannel_Set_Settings@Driver@Avian@Infineon@@@Z
	??$_To_address@PEAUShape_Settings@Driver@Avian@Infineon@@@std@@YA?A_PAEBQEAUShape_Settings@Driver@Avian@Infineon@@@Z
	??$_To_address@PEBI@std@@YA?A_PAEBQEBI@Z
	??$_To_address@PEBUChannel_Set_Settings@Driver@Avian@Infineon@@@std@@YA?A_PAEBQEBUChannel_Set_Settings@Driver@Avian@Infineon@@@Z
	??$_To_address@PEBUShape_Settings@Driver@Avian@Infineon@@@std@@YA?A_PAEBQEBUShape_Settings@Driver@Avian@Infineon@@@Z
	??$_To_timespec64_sys_10_day_clamped@_JU?$ratio@$00$0DLJKMKAA@@std@@@std@@YA_NAEAU_timespec64@@AEBV?$duration@_JU?$ratio@$00$0DLJKMKAA@@std@@@chrono@0@@Z
	??$_Traits_compare@U?$char_traits@D@std@@@std@@YAHQEBD_K01@Z
	??$_Traits_find@U?$char_traits@D@std@@@std@@YA_KQEBD_K101@Z
	??$_Try_emplace@AEBE$$V@?$map@EIU?$less@E@std@@V?$allocator@U?$pair@$$CBEI@std@@@2@@std@@AEAA?AU?$pair@PEAU?$_Tree_node@U?$pair@$$CBEI@std@@PEAX@std@@_N@1@AEBE@Z
	??$_Try_emplace@AEBE$$V@?$map@EURegister_Modification@Driver@Avian@Infineon@@U?$less@E@std@@V?$allocator@U?$pair@$$CBEURegister_Modification@Driver@Avian@Infineon@@@std@@@6@@std@@AEAA?AU?$pair@PEAU?$_Tree_node@U?$pair@$$CBEURegister_Modification@Driver@Avian@Infineon@@@std@@PEAX@std@@_N@1@AEBE@Z
	??$_Try_emplace@E$$V@?$map@EIU?$less@E@std@@V?$allocator@U?$pair@$$CBEI@std@@@2@@std@@AEAA?AU?$pair@PEAU?$_Tree_node@U?$pair@$$CBEI@std@@PEAX@std@@_N@1@$$QEAE@Z
	??$_Tuple_get@$0A@$$QEAE@std@@YA$$QEA_P$$QEAV?$tuple@$$QEAE@0@@Z
	??$_Tuple_get@$0A@AEBE@std@@YA$$QEA_P$$QEAV?$tuple@AEBE@0@@Z
	??$_UIntegral_to_buff@DI@std@@YAPEADPEADI@Z
	??$_Unchecked_x86_x64_popcount@K@std@@YAHK@Z
	??$_Unfancy@D@std@@YAPEADPEAD@Z
	??$_Unfancy@G@std@@YAPEAGPEAG@Z
	??$_Unfancy@I@std@@YAPEAIPEAI@Z
	??$_Unfancy@M@std@@YAPEAMPEAM@Z
	??$_Unfancy@UStateInfo@StateSequence@TimingModel@Avian@Infineon@@@std@@YAPEAUStateInfo@StateSequence@TimingModel@Avian@Infineon@@PEAU12345@@Z
	??$_Unfancy@U_Container_proxy@std@@@std@@YAPEAU_Container_proxy@0@PEAU10@@Z
	??$_Unfancy_maybe_null@G@std@@YAPEAGPEAG@Z
	??$_Unfancy_maybe_null@I@std@@YAPEAIPEAI@Z
	??$_Uninitialized_copy@PEBIPEBIV?$allocator@I@std@@@std@@YAPEAIPEBI0PEAIAEAV?$allocator@I@0@@Z
	??$_Uninitialized_copy_n@PEAIV?$allocator@I@std@@@std@@YAPEAIPEAI_K0AEAV?$allocator@I@0@@Z
	??$_Uninitialized_move@PEAIV?$allocator@I@std@@@std@@YAPEAIQEAI0PEAIAEAV?$allocator@I@0@@Z
	??$_Uninitialized_move@PEAUStateInfo@StateSequence@TimingModel@Avian@Infineon@@V?$allocator@UStateInfo@StateSequence@TimingModel@Avian@Infineon@@@std@@@std@@YAPEAUStateInfo@StateSequence@TimingModel@Avian@Infineon@@QEAU12345@0PEAU12345@AEAV?$allocator@UStateInfo@StateSequence@TimingModel@Avian@Infineon@@@0@@Z
	??$_Uninitialized_value_construct_n@V?$allocator@G@std@@@std@@YAPEAGPEAG_KAEAV?$allocator@G@0@@Z
	??$_Uninitialized_value_construct_n@V?$allocator@I@std@@@std@@YAPEAIPEAI_KAEAV?$allocator@I@0@@Z
	??$_Uninitialized_value_construct_n@V?$allocator@M@std@@@std@@YAPEAMPEAM_KAEAV?$allocator@M@0@@Z
	??$_Verify_range@D@std@@YAXQEBD0@Z
	??$_Verify_range@E@std@@YAXQEBE0@Z
	??$_Verify_range@I$01@std@@YAXAEBV?$_Array_const_iterator@I$01@0@0@Z
	??$_Verify_range@I@std@@YAXQEBI0@Z
	??$_Verify_range@UChannel_Set_Settings@Driver@Avian@Infineon@@@std@@YAXQEBUChannel_Set_Settings@Driver@Avian@Infineon@@0@Z
	??$_Verify_range@UShape_Settings@Driver@Avian@Infineon@@@std@@YAXQEBUShape_Settings@Driver@Avian@Infineon@@0@Z
	??$_Zero_range@PEAG@std@@YAPEAGQEAG0@Z
	??$_Zero_range@PEAI@std@@YAPEAIQEAI0@Z
	??$_Zero_range@PEAM@std@@YAPEAMQEAM0@Z
	??$addressof@$$CBV<lambda_fe68efc729bc7c1d7a5ab8f29f62bec5>@@@std@@YAPEBV<lambda_fe68efc729bc7c1d7a5ab8f29f62bec5>@@AEBV1@@Z
	??$addressof@$$CBV?$_List_val@U?$_List_simple_types@UTimer@ModelBGT60TRxxC@TimingModel@Avian@Infineon@@@std@@@std@@@std@@YAPEBV?$_List_val@U?$_List_simple_types@UTimer@ModelBGT60TRxxC@TimingModel@Avian@Infineon@@@std@@@0@AEBV10@@Z
	??$addressof@$$CBV?$_Tree@V?$_Tmap_traits@EIU?$less@E@std@@V?$allocator@U?$pair@$$CBEI@std@@@2@$0A@@std@@@std@@@std@@YAPEBV?$_Tree@V?$_Tmap_traits@EIU?$less@E@std@@V?$allocator@U?$pair@$$CBEI@std@@@2@$0A@@std@@@0@AEBV10@@Z
	??$addressof@$$CBV?$_Tree@V?$_Tmap_traits@EURegister_Modification@Driver@Avian@Infineon@@U?$less@E@std@@V?$allocator@U?$pair@$$CBEURegister_Modification@Driver@Avian@Infineon@@@std@@@6@$0A@@std@@@std@@@std@@YAPEBV?$_Tree@V?$_Tmap_traits@EURegister_Modification@Driver@Avian@Infineon@@U?$less@E@std@@V?$allocator@U?$pair@$$CBEURegister_Modification@Driver@Avian@Infineon@@@std@@@6@$0A@@std@@@0@AEBV10@@Z
	??$addressof@$$CBV?$_Tree_val@U?$_Tree_simple_types@U?$pair@$$CBEI@std@@@std@@@std@@@std@@YAPEBV?$_Tree_val@U?$_Tree_simple_types@U?$pair@$$CBEI@std@@@std@@@0@AEBV10@@Z
	??$addressof@$$CBV?$_Tree_val@U?$_Tree_simple_types@U?$pair@$$CBEURegister_Modification@Driver@Avian@Infineon@@@std@@@std@@@std@@@std@@YAPEBV?$_Tree_val@U?$_Tree_simple_types@U?$pair@$$CBEURegister_Modification@Driver@Avian@Infineon@@@std@@@std@@@0@AEBV10@@Z
	??$addressof@$$CBV?$_Tree_val@U?$_Tree_simple_types@U?$pair@$$CBIV?$vector@MV?$allocator@M@std@@@std@@@std@@@std@@@std@@@std@@YAPEBV?$_Tree_val@U?$_Tree_simple_types@U?$pair@$$CBIV?$vector@MV?$allocator@M@std@@@std@@@std@@@std@@@0@AEBV10@@Z
	??$addressof@$$CBV?$_Tree_val@U?$_Tree_simple_types@U?$pair@$$CBV?$basic_string@DU?$char_traits@D@std@@V?$allocator@D@2@@std@@UAddress@?$NamedMemory@GI@@@std@@@std@@@std@@@std@@YAPEBV?$_Tree_val@U?$_Tree_simple_types@U?$pair@$$CBV?$basic_string@DU?$char_traits@D@std@@V?$allocator@D@2@@std@@UAddress@?$NamedMemory@GI@@@std@@@std@@@0@AEBV10@@Z
	??$addressof@$$CBV?$basic_string@DU?$char_traits@D@std@@V?$allocator@D@2@@std@@@std@@YAPEBV?$basic_string@DU?$char_traits@D@std@@V?$allocator@D@2@@0@AEBV10@@Z
	??$addressof@D@std@@YAPEADAEAD@Z
	??$addressof@I@std@@YAPEAIAEAI@Z
	??$addressof@PEAD@std@@YAPEAPEADAEAPEAD@Z
	??$addressof@PEAU?$_List_node@UTimer@ModelBGT60TRxxC@TimingModel@Avian@Infineon@@PEAX@std@@@std@@YAPEAPEAU?$_List_node@UTimer@ModelBGT60TRxxC@TimingModel@Avian@Infineon@@PEAX@0@AEAPEAU10@@Z
	??$addressof@PEAU?$_Tree_node@U?$pair@$$CBEI@std@@PEAX@std@@@std@@YAPEAPEAU?$_Tree_node@U?$pair@$$CBEI@std@@PEAX@0@AEAPEAU10@@Z
	??$addressof@PEAU?$_Tree_node@U?$pair@$$CBEURegister_Modification@Driver@Avian@Infineon@@@std@@PEAX@std@@@std@@YAPEAPEAU?$_Tree_node@U?$pair@$$CBEURegister_Modification@Driver@Avian@Infineon@@@std@@PEAX@0@AEAPEAU10@@Z
	??$addressof@PEAU?$_Tree_node@U?$pair@$$CBIV?$vector@MV?$allocator@M@std@@@std@@@std@@PEAX@std@@@std@@YAPEAPEAU?$_Tree_node@U?$pair@$$CBIV?$vector@MV?$allocator@M@std@@@std@@@std@@PEAX@0@AEAPEAU10@@Z
	??$addressof@PEAU?$_Tree_node@U?$pair@$$CBV?$basic_string@DU?$char_traits@D@std@@V?$allocator@D@2@@std@@UAddress@?$NamedMemory@GI@@@std@@PEAX@std@@@std@@YAPEAPEAU?$_Tree_node@U?$pair@$$CBV?$basic_string@DU?$char_traits@D@std@@V?$allocator@D@2@@std@@UAddress@?$NamedMemory@GI@@@std@@PEAX@0@AEAPEAU10@@Z
	??$addressof@U?$pair@$$CBEI@std@@@std@@YAPEAU?$pair@$$CBEI@0@AEAU10@@Z
	??$addressof@U?$pair@$$CBEURegister_Modification@Driver@Avian@Infineon@@@std@@@std@@YAPEAU?$pair@$$CBEURegister_Modification@Driver@Avian@Infineon@@@0@AEAU10@@Z
	??$addressof@U?$pair@$$CBIV?$vector@MV?$allocator@M@std@@@std@@@std@@@std@@YAPEAU?$pair@$$CBIV?$vector@MV?$allocator@M@std@@@std@@@0@AEAU10@@Z
	??$addressof@U?$pair@$$CBV?$basic_string@DU?$char_traits@D@std@@V?$allocator@D@2@@std@@UAddress@?$NamedMemory@GI@@@std@@@std@@YAPEAU?$pair@$$CBV?$basic_string@DU?$char_traits@D@std@@V?$allocator@D@2@@std@@UAddress@?$NamedMemory@GI@@@0@AEAU10@@Z
	??$addressof@UTimer@ModelBGT60TRxxC@TimingModel@Avian@Infineon@@@std@@YAPEAUTimer@ModelBGT60TRxxC@TimingModel@Avian@Infineon@@AEAU12345@@Z
	??$addressof@U_Container_base12@std@@@std@@YAPEAU_Container_base12@0@AEAU10@@Z
	??$addressof@U_Container_proxy@std@@@std@@YAPEAU_Container_proxy@0@AEAU10@@Z
	??$addressof@V?$_List_const_iterator@V?$_List_val@U?$_List_simple_types@UTimer@ModelBGT60TRxxC@TimingModel@Avian@Infineon@@@std@@@std@@@std@@@std@@YAPEAV?$_List_const_iterator@V?$_List_val@U?$_List_simple_types@UTimer@ModelBGT60TRxxC@TimingModel@Avian@Infineon@@@std@@@std@@@0@AEAV10@@Z
	??$addressof@V?$_List_val@U?$_List_simple_types@UTimer@ModelBGT60TRxxC@TimingModel@Avian@Infineon@@@std@@@std@@@std@@YAPEAV?$_List_val@U?$_List_simple_types@UTimer@ModelBGT60TRxxC@TimingModel@Avian@Infineon@@@std@@@0@AEAV10@@Z
	??$addressof@V?$_String_val@U?$_Simple_types@D@std@@@std@@@std@@YAPEAV?$_String_val@U?$_Simple_types@D@std@@@0@AEAV10@@Z
	??$addressof@V?$_Tree_val@U?$_Tree_simple_types@U?$pair@$$CBEI@std@@@std@@@std@@@std@@YAPEAV?$_Tree_val@U?$_Tree_simple_types@U?$pair@$$CBEI@std@@@std@@@0@AEAV10@@Z
	??$addressof@V?$_Tree_val@U?$_Tree_simple_types@U?$pair@$$CBEURegister_Modification@Driver@Avian@Infineon@@@std@@@std@@@std@@@std@@YAPEAV?$_Tree_val@U?$_Tree_simple_types@U?$pair@$$CBEURegister_Modification@Driver@Avian@Infineon@@@std@@@std@@@0@AEAV10@@Z
	??$addressof@V?$_Tree_val@U?$_Tree_simple_types@U?$pair@$$CBIV?$vector@MV?$allocator@M@std@@@std@@@std@@@std@@@std@@@std@@YAPEAV?$_Tree_val@U?$_Tree_simple_types@U?$pair@$$CBIV?$vector@MV?$allocator@M@std@@@std@@@std@@@std@@@0@AEAV10@@Z
	??$addressof@V?$_Tree_val@U?$_Tree_simple_types@U?$pair@$$CBV?$basic_string@DU?$char_traits@D@std@@V?$allocator@D@2@@std@@UAddress@?$NamedMemory@GI@@@std@@@std@@@std@@@std@@YAPEAV?$_Tree_val@U?$_Tree_simple_types@U?$pair@$$CBV?$basic_string@DU?$char_traits@D@std@@V?$allocator@D@2@@std@@UAddress@?$NamedMemory@GI@@@std@@@std@@@0@AEAV10@@Z
	??$addressof@V?$_Vector_val@U?$_Simple_types@I@std@@@std@@@std@@YAPEAV?$_Vector_val@U?$_Simple_types@I@std@@@0@AEAV10@@Z
	??$addressof@V?$_Vector_val@U?$_Simple_types@UStateInfo@StateSequence@TimingModel@Avian@Infineon@@@std@@@std@@@std@@YAPEAV?$_Vector_val@U?$_Simple_types@UStateInfo@StateSequence@TimingModel@Avian@Infineon@@@std@@@0@AEAV10@@Z
	??$addressof@V?$basic_string@DU?$char_traits@D@std@@V?$allocator@D@2@@std@@@std@@YAPEAV?$basic_string@DU?$char_traits@D@std@@V?$allocator@D@2@@0@AEAV10@@Z
	??$addressof@V?$basic_stringbuf@DU?$char_traits@D@std@@V?$allocator@D@2@@std@@@std@@YAPEAV?$basic_stringbuf@DU?$char_traits@D@std@@V?$allocator@D@2@@0@AEAV10@@Z
	??$addressof@V?$list@UTimer@ModelBGT60TRxxC@TimingModel@Avian@Infineon@@V?$allocator@UTimer@ModelBGT60TRxxC@TimingModel@Avian@Infineon@@@std@@@std@@@std@@YAPEAV?$list@UTimer@ModelBGT60TRxxC@TimingModel@Avian@Infineon@@V?$allocator@UTimer@ModelBGT60TRxxC@TimingModel@Avian@Infineon@@@std@@@0@AEAV10@@Z
	??$addressof@Vmutex@std@@@std@@YAPEAVmutex@0@AEAV10@@Z
	??$ceil@V?$duration@_JU?$ratio@$00$0DOI@@std@@@chrono@std@@_JU?$ratio@$00$0DLJKMKAA@@3@$0A@@chrono@std@@YA?AV?$duration@_JU?$ratio@$00$0DOI@@std@@@01@AEBV?$duration@_JU?$ratio@$00$0DLJKMKAA@@std@@@01@@Z
	??$clamp@I@@YAAEBIAEBI00@Z
	??$clamp@M@@YAAEBMAEBM00@Z
	??$clamp@N@@YAAEBNAEBN00@Z
	??$configure@$03@IData@@QEAAXEPEBUIDataProperties_t@@PEAY03$$CBE@Z
	??$configure@UDataSettingsBgtRadar_t@@@IData@@QEAAXEPEBUIDataProperties_t@@PEBUDataSettingsBgtRadar_t@@@Z
	??$construct@G$$V@?$_Default_allocator_traits@V?$allocator@G@std@@@std@@SAXAEAV?$allocator@G@1@QEAG@Z
	??$construct@I$$V@?$_Default_allocator_traits@V?$allocator@I@std@@@std@@SAXAEAV?$allocator@I@1@QEAI@Z
	??$construct@IAEAI@?$_Default_allocator_traits@V?$allocator@I@std@@@std@@SAXAEAV?$allocator@I@1@QEAIAEAI@Z
	??$construct@IAEBI@?$_Default_allocator_traits@V?$allocator@I@std@@@std@@SAXAEAV?$allocator@I@1@QEAIAEBI@Z
	??$construct@II@?$_Default_allocator_traits@V?$allocator@I@std@@@std@@SAXAEAV?$allocator@I@1@QEAI$$QEAI@Z
	??$construct@M$$V@?$_Default_allocator_traits@V?$allocator@M@std@@@std@@SAXAEAV?$allocator@M@1@QEAM@Z
	??$construct@U?$pair@$$CBEI@std@@AEAU12@@?$_Default_allocator_traits@V?$allocator@U?$_Tree_node@U?$pair@$$CBEI@std@@PEAX@std@@@std@@@std@@SAXAEAV?$allocator@U?$_Tree_node@U?$pair@$$CBEI@std@@PEAX@std@@@1@QEAU?$pair@$$CBEI@1@AEAU31@@Z
	??$construct@U?$pair@$$CBEI@std@@AEBUpiecewise_construct_t@2@V?$tuple@$$QEAE@2@V?$tuple@$$V@2@@?$_Default_allocator_traits@V?$allocator@U?$_Tree_node@U?$pair@$$CBEI@std@@PEAX@std@@@std@@@std@@SAXAEAV?$allocator@U?$_Tree_node@U?$pair@$$CBEI@std@@PEAX@std@@@1@QEAU?$pair@$$CBEI@1@AEBUpiecewise_construct_t@1@$$QEAV?$tuple@$$QEAE@1@$$QEAV?$tuple@$$V@1@@Z
	??$construct@U?$pair@$$CBEI@std@@AEBUpiecewise_construct_t@2@V?$tuple@AEBE@2@V?$tuple@$$V@2@@?$_Default_allocator_traits@V?$allocator@U?$_Tree_node@U?$pair@$$CBEI@std@@PEAX@std@@@std@@@std@@SAXAEAV?$allocator@U?$_Tree_node@U?$pair@$$CBEI@std@@PEAX@std@@@1@QEAU?$pair@$$CBEI@1@AEBUpiecewise_construct_t@1@$$QEAV?$tuple@AEBE@1@$$QEAV?$tuple@$$V@1@@Z
	??$construct@U?$pair@$$CBEI@std@@EAEAI@?$_Default_allocator_traits@V?$allocator@U?$_Tree_node@U?$pair@$$CBEI@std@@PEAX@std@@@std@@@std@@SAXAEAV?$allocator@U?$_Tree_node@U?$pair@$$CBEI@std@@PEAX@std@@@1@QEAU?$pair@$$CBEI@1@$$QEAEAEAI@Z
	??$construct@U?$pair@$$CBEURegister_Modification@Driver@Avian@Infineon@@@std@@AEAU12@@?$_Default_allocator_traits@V?$allocator@U?$_Tree_node@U?$pair@$$CBEURegister_Modification@Driver@Avian@Infineon@@@std@@PEAX@std@@@std@@@std@@SAXAEAV?$allocator@U?$_Tree_node@U?$pair@$$CBEURegister_Modification@Driver@Avian@Infineon@@@std@@PEAX@std@@@1@QEAU?$pair@$$CBEURegister_Modification@Driver@Avian@Infineon@@@1@AEAU31@@Z
	??$construct@U?$pair@$$CBEURegister_Modification@Driver@Avian@Infineon@@@std@@AEBUpiecewise_construct_t@2@V?$tuple@AEBE@2@V?$tuple@$$V@2@@?$_Default_allocator_traits@V?$allocator@U?$_Tree_node@U?$pair@$$CBEURegister_Modification@Driver@Avian@Infineon@@@std@@PEAX@std@@@std@@@std@@SAXAEAV?$allocator@U?$_Tree_node@U?$pair@$$CBEURegister_Modification@Driver@Avian@Infineon@@@std@@PEAX@std@@@1@QEAU?$pair@$$CBEURegister_Modification@Driver@Avian@Infineon@@@1@AEBUpiecewise_construct_t@1@$$QEAV?$tuple@AEBE@1@$$QEAV?$tuple@$$V@1@@Z
	??$construct@U?$pair@$$CBIV?$vector@MV?$allocator@M@std@@@std@@@std@@AEAIAEAG@?$_Default_allocator_traits@V?$allocator@U?$_Tree_node@U?$pair@$$CBIV?$vector@MV?$allocator@M@std@@@std@@@std@@PEAX@std@@@std@@@std@@SAXAEAV?$allocator@U?$_Tree_node@U?$pair@$$CBIV?$vector@MV?$allocator@M@std@@@std@@@std@@PEAX@std@@@1@QEAU?$pair@$$CBIV?$vector@MV?$allocator@M@std@@@std@@@1@AEAIAEAG@Z
	??$construct@U?$pair@$$CBV?$basic_string@DU?$char_traits@D@std@@V?$allocator@D@2@@std@@UAddress@?$NamedMemory@GI@@@std@@AEAU12@@?$_Default_allocator_traits@V?$allocator@U?$_Tree_node@U?$pair@$$CBV?$basic_string@DU?$char_traits@D@std@@V?$allocator@D@2@@std@@UAddress@?$NamedMemory@GI@@@std@@PEAX@std@@@std@@@std@@SAXAEAV?$allocator@U?$_Tree_node@U?$pair@$$CBV?$basic_string@DU?$char_traits@D@std@@V?$allocator@D@2@@std@@UAddress@?$NamedMemory@GI@@@std@@PEAX@std@@@1@QEAU?$pair@$$CBV?$basic_string@DU?$char_traits@D@std@@V?$allocator@D@2@@std@@UAddress@?$NamedMemory@GI@@@1@AEAU31@@Z
	??$construct@U?$pair@$$CBV?$basic_string@DU?$char_traits@D@std@@V?$allocator@D@2@@std@@UAddress@?$NamedMemory@GI@@@std@@AEBU12@@?$_Default_allocator_traits@V?$allocator@U?$_Tree_node@U?$pair@$$CBV?$basic_string@DU?$char_traits@D@std@@V?$allocator@D@2@@std@@UAddress@?$NamedMemory@GI@@@std@@PEAX@std@@@std@@@std@@SAXAEAV?$allocator@U?$_Tree_node@U?$pair@$$CBV?$basic_string@DU?$char_traits@D@std@@V?$allocator@D@2@@std@@UAddress@?$NamedMemory@GI@@@std@@PEAX@std@@@1@QEAU?$pair@$$CBV?$basic_string@DU?$char_traits@D@std@@V?$allocator@D@2@@std@@UAddress@?$NamedMemory@GI@@@1@AEBU31@@Z
	??$construct@UStateInfo@StateSequence@TimingModel@Avian@Infineon@@AEBU12345@@?$_Default_allocator_traits@V?$allocator@UStateInfo@StateSequence@TimingModel@Avian@Infineon@@@std@@@std@@SAXAEAV?$allocator@UStateInfo@StateSequence@TimingModel@Avian@Infineon@@@1@QEAUStateInfo@StateSequence@TimingModel@Avian@Infineon@@AEBU34567@@Z
	??$construct@UStateInfo@StateSequence@TimingModel@Avian@Infineon@@U12345@@?$_Default_allocator_traits@V?$allocator@UStateInfo@StateSequence@TimingModel@Avian@Infineon@@@std@@@std@@SAXAEAV?$allocator@UStateInfo@StateSequence@TimingModel@Avian@Infineon@@@1@QEAUStateInfo@StateSequence@TimingModel@Avian@Infineon@@$$QEAU34567@@Z
	??$construct@UTimer@ModelBGT60TRxxC@TimingModel@Avian@Infineon@@AEAY0BB@$$CBDAEAY0M@$$CBDAEBG@?$_Default_allocator_traits@V?$allocator@U?$_List_node@UTimer@ModelBGT60TRxxC@TimingModel@Avian@Infineon@@PEAX@std@@@std@@@std@@SAXAEAV?$allocator@U?$_List_node@UTimer@ModelBGT60TRxxC@TimingModel@Avian@Infineon@@PEAX@std@@@1@QEAUTimer@ModelBGT60TRxxC@TimingModel@Avian@Infineon@@AEAY0BB@$$CBDAEAY0M@$$CBDAEBG@Z
	??$construct@UTimer@ModelBGT60TRxxC@TimingModel@Avian@Infineon@@AEAY0BC@$$CBDAEAY04$$CBDAEBG@?$_Default_allocator_traits@V?$allocator@U?$_List_node@UTimer@ModelBGT60TRxxC@TimingModel@Avian@Infineon@@PEAX@std@@@std@@@std@@SAXAEAV?$allocator@U?$_List_node@UTimer@ModelBGT60TRxxC@TimingModel@Avian@Infineon@@PEAX@std@@@1@QEAUTimer@ModelBGT60TRxxC@TimingModel@Avian@Infineon@@AEAY0BC@$$CBDAEAY04$$CBDAEBG@Z
	??$construct@UTimer@ModelBGT60TRxxC@TimingModel@Avian@Infineon@@AEAY0BF@$$CBDAEAY04$$CBDAEBG@?$_Default_allocator_traits@V?$allocator@U?$_List_node@UTimer@ModelBGT60TRxxC@TimingModel@Avian@Infineon@@PEAX@std@@@std@@@std@@SAXAEAV?$allocator@U?$_List_node@UTimer@ModelBGT60TRxxC@TimingModel@Avian@Infineon@@PEAX@std@@@1@QEAUTimer@ModelBGT60TRxxC@TimingModel@Avian@Infineon@@AEAY0BF@$$CBDAEAY04$$CBDAEBG@Z
	??$construct@UTimer@ModelBGT60TRxxC@TimingModel@Avian@Infineon@@AEAY0L@$$CBDAEAY09$$CBDAEBG@?$_Default_allocator_traits@V?$allocator@U?$_List_node@UTimer@ModelBGT60TRxxC@TimingModel@Avian@Infineon@@PEAX@std@@@std@@@std@@SAXAEAV?$allocator@U?$_List_node@UTimer@ModelBGT60TRxxC@TimingModel@Avian@Infineon@@PEAX@std@@@1@QEAUTimer@ModelBGT60TRxxC@TimingModel@Avian@Infineon@@AEAY0L@$$CBDAEAY09$$CBDAEBG@Z
	??$construct@UTimer@ModelBGT60TRxxC@TimingModel@Avian@Infineon@@AEAY0O@$$CBDAEAY07$$CBDAEBG@?$_Default_allocator_traits@V?$allocator@U?$_List_node@UTimer@ModelBGT60TRxxC@TimingModel@Avian@Infineon@@PEAX@std@@@std@@@std@@SAXAEAV?$allocator@U?$_List_node@UTimer@ModelBGT60TRxxC@TimingModel@Avian@Infineon@@PEAX@std@@@1@QEAUTimer@ModelBGT60TRxxC@TimingModel@Avian@Infineon@@AEAY0O@$$CBDAEAY07$$CBDAEBG@Z
	??$copy@PEAEPEAE@std@@YAPEAEPEAE00@Z
	??$copy@PEBUChannel_Set_Settings@Driver@Avian@Infineon@@PEAU1234@@std@@YAPEAUChannel_Set_Settings@Driver@Avian@Infineon@@PEBU1234@0PEAU1234@@Z
	??$copy@PEBUShape_Settings@Driver@Avian@Infineon@@PEAU1234@@std@@YAPEAUShape_Settings@Driver@Avian@Infineon@@PEBU1234@0PEAU1234@@Z
	??$destroy@U?$pair@$$CBEI@std@@@?$_Default_allocator_traits@V?$allocator@U?$_Tree_node@U?$pair@$$CBEI@std@@PEAX@std@@@std@@@std@@SAXAEAV?$allocator@U?$_Tree_node@U?$pair@$$CBEI@std@@PEAX@std@@@1@QEAU?$pair@$$CBEI@1@@Z
	??$destroy@U?$pair@$$CBEURegister_Modification@Driver@Avian@Infineon@@@std@@@?$_Default_allocator_traits@V?$allocator@U?$_Tree_node@U?$pair@$$CBEURegister_Modification@Driver@Avian@Infineon@@@std@@PEAX@std@@@std@@@std@@SAXAEAV?$allocator@U?$_Tree_node@U?$pair@$$CBEURegister_Modification@Driver@Avian@Infineon@@@std@@PEAX@std@@@1@QEAU?$pair@$$CBEURegister_Modification@Driver@Avian@Infineon@@@1@@Z
	??$destroy@U?$pair@$$CBIV?$vector@MV?$allocator@M@std@@@std@@@std@@@?$_Default_allocator_traits@V?$allocator@U?$_Tree_node@U?$pair@$$CBIV?$vector@MV?$allocator@M@std@@@std@@@std@@PEAX@std@@@std@@@std@@SAXAEAV?$allocator@U?$_Tree_node@U?$pair@$$CBIV?$vector@MV?$allocator@M@std@@@std@@@std@@PEAX@std@@@1@QEAU?$pair@$$CBIV?$vector@MV?$allocator@M@std@@@std@@@1@@Z
	??$destroy@U?$pair@$$CBV?$basic_string@DU?$char_traits@D@std@@V?$allocator@D@2@@std@@UAddress@?$NamedMemory@GI@@@std@@@?$_Default_allocator_traits@V?$allocator@U?$_Tree_node@U?$pair@$$CBV?$basic_string@DU?$char_traits@D@std@@V?$allocator@D@2@@std@@UAddress@?$NamedMemory@GI@@@std@@PEAX@std@@@std@@@std@@SAXAEAV?$allocator@U?$_Tree_node@U?$pair@$$CBV?$basic_string@DU?$char_traits@D@std@@V?$allocator@D@2@@std@@UAddress@?$NamedMemory@GI@@@std@@PEAX@std@@@1@QEAU?$pair@$$CBV?$basic_string@DU?$char_traits@D@std@@V?$allocator@D@2@@std@@UAddress@?$NamedMemory@GI@@@1@@Z
	??$destroy@UStateInfo@StateSequence@TimingModel@Avian@Infineon@@@?$_Default_allocator_traits@V?$allocator@UStateInfo@StateSequence@TimingModel@Avian@Infineon@@@std@@@std@@SAXAEAV?$allocator@UStateInfo@StateSequence@TimingModel@Avian@Infineon@@@1@QEAUStateInfo@StateSequence@TimingModel@Avian@Infineon@@@Z
	??$destroy@UTimer@ModelBGT60TRxxC@TimingModel@Avian@Infineon@@@?$_Default_allocator_traits@V?$allocator@U?$_List_node@UTimer@ModelBGT60TRxxC@TimingModel@Avian@Infineon@@PEAX@std@@@std@@@std@@SAXAEAV?$allocator@U?$_List_node@UTimer@ModelBGT60TRxxC@TimingModel@Avian@Infineon@@PEAX@std@@@1@QEAUTimer@ModelBGT60TRxxC@TimingModel@Avian@Infineon@@@Z
	??$distance@PEAI@std@@YA_JPEAI0@Z
	??$distance@PEBI@std@@YA_JPEBI0@Z
	??$duration_cast@V?$duration@NU?$ratio@$00$0DLJKMKAA@@std@@@chrono@std@@NU?$ratio@$00$00@3@$0A@@chrono@std@@YA?AV?$duration@NU?$ratio@$00$0DLJKMKAA@@std@@@01@AEBV?$duration@NU?$ratio@$00$00@std@@@01@@Z
	??$duration_cast@V?$duration@NU?$ratio@$00$0DLJKMKAA@@std@@@chrono@std@@_JU?$ratio@$00$0DLJKMKAA@@3@$0A@@chrono@std@@YA?AV?$duration@NU?$ratio@$00$0DLJKMKAA@@std@@@01@AEBV?$duration@_JU?$ratio@$00$0DLJKMKAA@@std@@@01@@Z
	??$duration_cast@V?$duration@_JU?$ratio@$00$00@std@@@chrono@std@@_JU?$ratio@$00$0DLJKMKAA@@3@$0A@@chrono@std@@YA?AV?$duration@_JU?$ratio@$00$00@std@@@01@AEBV?$duration@_JU?$ratio@$00$0DLJKMKAA@@std@@@01@@Z
	??$duration_cast@V?$duration@_JU?$ratio@$00$0DLJKMKAA@@std@@@chrono@std@@_JU?$ratio@$00$00@3@$0A@@chrono@std@@YA?AV?$duration@_JU?$ratio@$00$0DLJKMKAA@@std@@@01@AEBV?$duration@_JU?$ratio@$00$00@std@@@01@@Z
	??$duration_cast@V?$duration@_JU?$ratio@$00$0DLJKMKAA@@std@@@chrono@std@@_JU?$ratio@$00$0DLJKMKAA@@3@$0A@@chrono@std@@YA?AV?$duration@_JU?$ratio@$00$0DLJKMKAA@@std@@@01@AEBV201@@Z
	??$duration_cast@V?$duration@_JU?$ratio@$00$0DLJKMKAA@@std@@@chrono@std@@_JU?$ratio@$00$0DOI@@3@$0A@@chrono@std@@YA?AV?$duration@_JU?$ratio@$00$0DLJKMKAA@@std@@@01@AEBV?$duration@_JU?$ratio@$00$0DOI@@std@@@01@@Z
	??$duration_cast@V?$duration@_JU?$ratio@$00$0DLJKMKAA@@std@@@chrono@std@@_JU?$ratio@$00$0JIJGIA@@3@$0A@@chrono@std@@YA?AV?$duration@_JU?$ratio@$00$0DLJKMKAA@@std@@@01@AEBV?$duration@_JU?$ratio@$00$0JIJGIA@@std@@@01@@Z
	??$duration_cast@V?$duration@_JU?$ratio@$00$0DLJKMKAA@@std@@@chrono@std@@_JU?$ratio@$00$0PECEA@@3@$0A@@chrono@std@@YA?AV?$duration@_JU?$ratio@$00$0DLJKMKAA@@std@@@01@AEBV?$duration@_JU?$ratio@$00$0PECEA@@std@@@01@@Z
	??$duration_cast@V?$duration@_JU?$ratio@$00$0DOI@@std@@@chrono@std@@_JU?$ratio@$00$0DLJKMKAA@@3@$0A@@chrono@std@@YA?AV?$duration@_JU?$ratio@$00$0DOI@@std@@@01@AEBV?$duration@_JU?$ratio@$00$0DLJKMKAA@@std@@@01@@Z
	??$emplace@AEAIAEAG@?$_Tree@V?$_Tmap_traits@IV?$vector@MV?$allocator@M@std@@@std@@U?$less@I@2@V?$allocator@U?$pair@$$CBIV?$vector@MV?$allocator@M@std@@@std@@@std@@@2@$0A@@std@@@std@@QEAA?AU?$pair@V?$_Tree_iterator@V?$_Tree_val@U?$_Tree_simple_types@U?$pair@$$CBIV?$vector@MV?$allocator@M@std@@@std@@@std@@@std@@@std@@@std@@_N@1@AEAIAEAG@Z
	??$emplace@EAEAI@?$_Tree@V?$_Tmap_traits@EIU?$less@E@std@@V?$allocator@U?$pair@$$CBEI@std@@@2@$0A@@std@@@std@@QEAA?AU?$pair@V?$_Tree_iterator@V?$_Tree_val@U?$_Tree_simple_types@U?$pair@$$CBEI@std@@@std@@@std@@@std@@_N@1@$$QEAEAEAI@Z
	??$emplace_back@AEAY0BB@$$CBDAEAY0M@$$CBDAEBG@?$list@UTimer@ModelBGT60TRxxC@TimingModel@Avian@Infineon@@V?$allocator@UTimer@ModelBGT60TRxxC@TimingModel@Avian@Infineon@@@std@@@std@@QEAA?A_TAEAY0BB@$$CBDAEAY0M@$$CBDAEBG@Z
	??$emplace_back@AEAY0BC@$$CBDAEAY04$$CBDAEBG@?$list@UTimer@ModelBGT60TRxxC@TimingModel@Avian@Infineon@@V?$allocator@UTimer@ModelBGT60TRxxC@TimingModel@Avian@Infineon@@@std@@@std@@QEAA?A_TAEAY0BC@$$CBDAEAY04$$CBDAEBG@Z
	??$emplace_back@AEAY0BF@$$CBDAEAY04$$CBDAEBG@?$list@UTimer@ModelBGT60TRxxC@TimingModel@Avian@Infineon@@V?$allocator@UTimer@ModelBGT60TRxxC@TimingModel@Avian@Infineon@@@std@@@std@@QEAA?A_TAEAY0BF@$$CBDAEAY04$$CBDAEBG@Z
	??$emplace_back@AEAY0L@$$CBDAEAY09$$CBDAEBG@?$list@UTimer@ModelBGT60TRxxC@TimingModel@Avian@Infineon@@V?$allocator@UTimer@ModelBGT60TRxxC@TimingModel@Avian@Infineon@@@std@@@std@@QEAA?A_TAEAY0L@$$CBDAEAY09$$CBDAEBG@Z
	??$emplace_back@AEAY0O@$$CBDAEAY07$$CBDAEBG@?$list@UTimer@ModelBGT60TRxxC@TimingModel@Avian@Infineon@@V?$allocator@UTimer@ModelBGT60TRxxC@TimingModel@Avian@Infineon@@@std@@@std@@QEAA?A_TAEAY0O@$$CBDAEAY07$$CBDAEBG@Z
	??$end@D$0BF@@std@@YAPEADAEAY0BF@D@Z
	??$endl@DU?$char_traits@D@std@@@std@@YAAEAV?$basic_ostream@DU?$char_traits@D@std@@@0@AEAV10@@Z
	??$exchange@PEAI$$T@std@@YAPEAIAEAPEAI$$QEA$$T@Z
	??$exchange@PEAU?$_Tree_node@U?$pair@$$CBEI@std@@PEAX@std@@$$T@std@@YAPEAU?$_Tree_node@U?$pair@$$CBEI@std@@PEAX@0@AEAPEAU10@$$QEA$$T@Z
	??$exchange@PEAU?$_Tree_node@U?$pair@$$CBEI@std@@PEAX@std@@AEAPEAU12@@std@@YAPEAU?$_Tree_node@U?$pair@$$CBEI@std@@PEAX@0@AEAPEAU10@0@Z
	??$exchange@PEAU?$_Tree_node@U?$pair@$$CBEURegister_Modification@Driver@Avian@Infineon@@@std@@PEAX@std@@$$T@std@@YAPEAU?$_Tree_node@U?$pair@$$CBEURegister_Modification@Driver@Avian@Infineon@@@std@@PEAX@0@AEAPEAU10@$$QEA$$T@Z
	??$exchange@PEAU?$_Tree_node@U?$pair@$$CBEURegister_Modification@Driver@Avian@Infineon@@@std@@PEAX@std@@AEAPEAU12@@std@@YAPEAU?$_Tree_node@U?$pair@$$CBEURegister_Modification@Driver@Avian@Infineon@@@std@@PEAX@0@AEAPEAU10@0@Z
	??$exchange@PEAU?$_Tree_node@U?$pair@$$CBIV?$vector@MV?$allocator@M@std@@@std@@@std@@PEAX@std@@$$T@std@@YAPEAU?$_Tree_node@U?$pair@$$CBIV?$vector@MV?$allocator@M@std@@@std@@@std@@PEAX@0@AEAPEAU10@$$QEA$$T@Z
	??$exchange@PEAU?$_Tree_node@U?$pair@$$CBIV?$vector@MV?$allocator@M@std@@@std@@@std@@PEAX@std@@AEAPEAU12@@std@@YAPEAU?$_Tree_node@U?$pair@$$CBIV?$vector@MV?$allocator@M@std@@@std@@@std@@PEAX@0@AEAPEAU10@0@Z
	??$exchange@PEAU?$_Tree_node@U?$pair@$$CBV?$basic_string@DU?$char_traits@D@std@@V?$allocator@D@2@@std@@UAddress@?$NamedMemory@GI@@@std@@PEAX@std@@$$T@std@@YAPEAU?$_Tree_node@U?$pair@$$CBV?$basic_string@DU?$char_traits@D@std@@V?$allocator@D@2@@std@@UAddress@?$NamedMemory@GI@@@std@@PEAX@0@AEAPEAU10@$$QEA$$T@Z
	??$exchange@PEAU?$_Tree_node@U?$pair@$$CBV?$basic_string@DU?$char_traits@D@std@@V?$allocator@D@2@@std@@UAddress@?$NamedMemory@GI@@@std@@PEAX@std@@AEAPEAU12@@std@@YAPEAU?$_Tree_node@U?$pair@$$CBV?$basic_string@DU?$char_traits@D@std@@V?$allocator@D@2@@std@@UAddress@?$NamedMemory@GI@@@std@@PEAX@0@AEAPEAU10@0@Z
	??$exchange@PEAU_Container_proxy@std@@$$T@std@@YAPEAU_Container_proxy@0@AEAPEAU10@$$QEA$$T@Z
	??$exchange@PEAU_Iterator_base12@std@@$$T@std@@YAPEAU_Iterator_base12@0@AEAPEAU10@$$QEA$$T@Z
	??$exchange@PEAVDriver@Avian@Infineon@@$$T@std@@YAPEAVDriver@Avian@Infineon@@AEAPEAV123@$$QEA$$T@Z
	??$exchange@PEAVModelBGT60TR11D@TimingModel@Avian@Infineon@@$$T@std@@YAPEAVModelBGT60TR11D@TimingModel@Avian@Infineon@@AEAPEAV1234@$$QEA$$T@Z
	??$exchange@PEAVModelBGT60TRxxC@TimingModel@Avian@Infineon@@$$T@std@@YAPEAVModelBGT60TRxxC@TimingModel@Avian@Infineon@@AEAPEAV1234@$$QEA$$T@Z
	??$exchange@PEAVModelBGT60TRxxC@TimingModel@Avian@Infineon@@AEAPEAV1234@@std@@YAPEAVModelBGT60TRxxC@TimingModel@Avian@Infineon@@AEAPEAV1234@0@Z
	??$exchange@PEAVModelBGT60TRxxD@TimingModel@Avian@Infineon@@$$T@std@@YAPEAVModelBGT60TRxxD@TimingModel@Avian@Infineon@@AEAPEAV1234@$$QEA$$T@Z
	??$exchange@PEAVSequenceParameters11D@TimingModel@Avian@Infineon@@$$T@std@@YAPEAVSequenceParameters11D@TimingModel@Avian@Infineon@@AEAPEAV1234@$$QEA$$T@Z
	??$exchange@PEAVSequenceParameters@TimingModel@Avian@Infineon@@$$T@std@@YAPEAVSequenceParameters@TimingModel@Avian@Infineon@@AEAPEAV1234@$$QEA$$T@Z
	??$exchange@PEAVSequenceParameters@TimingModel@Avian@Infineon@@AEAPEAV1234@@std@@YAPEAVSequenceParameters@TimingModel@Avian@Infineon@@AEAPEAV1234@0@Z
	??$exchange@PEAVSequenceParametersD@TimingModel@Avian@Infineon@@$$T@std@@YAPEAVSequenceParametersD@TimingModel@Avian@Infineon@@AEAPEAV1234@$$QEA$$T@Z
	??$exchange@PEAX$$T@std@@YAPEAXAEAPEAX$$QEA$$T@Z
	??$forward@AEAE@std@@YAAEAEAEAE@Z
	??$forward@AEAG@std@@YAAEAGAEAG@Z
	??$forward@AEAI@std@@YAAEAIAEAI@Z
	??$forward@AEAN@std@@YAAEANAEAN@Z
	??$forward@AEAPEAD@std@@YAAEAPEADAEAPEAD@Z
	??$forward@AEAPEAU?$_List_node@UTimer@ModelBGT60TRxxC@TimingModel@Avian@Infineon@@PEAX@std@@@std@@YAAEAPEAU?$_List_node@UTimer@ModelBGT60TRxxC@TimingModel@Avian@Infineon@@PEAX@0@AEAPEAU10@@Z
	??$forward@AEAPEAU?$_Tree_node@U?$pair@$$CBEI@std@@PEAX@std@@@std@@YAAEAPEAU?$_Tree_node@U?$pair@$$CBEI@std@@PEAX@0@AEAPEAU10@@Z
	??$forward@AEAPEAU?$_Tree_node@U?$pair@$$CBEURegister_Modification@Driver@Avian@Infineon@@@std@@PEAX@std@@@std@@YAAEAPEAU?$_Tree_node@U?$pair@$$CBEURegister_Modification@Driver@Avian@Infineon@@@std@@PEAX@0@AEAPEAU10@@Z
	??$forward@AEAPEAU?$_Tree_node@U?$pair@$$CBIV?$vector@MV?$allocator@M@std@@@std@@@std@@PEAX@std@@@std@@YAAEAPEAU?$_Tree_node@U?$pair@$$CBIV?$vector@MV?$allocator@M@std@@@std@@@std@@PEAX@0@AEAPEAU10@@Z
	??$forward@AEAPEAU?$_Tree_node@U?$pair@$$CBV?$basic_string@DU?$char_traits@D@std@@V?$allocator@D@2@@std@@UAddress@?$NamedMemory@GI@@@std@@PEAX@std@@@std@@YAAEAPEAU?$_Tree_node@U?$pair@$$CBV?$basic_string@DU?$char_traits@D@std@@V?$allocator@D@2@@std@@UAddress@?$NamedMemory@GI@@@std@@PEAX@0@AEAPEAU10@@Z
	??$forward@AEAPEAVDriver@Avian@Infineon@@@std@@YAAEAPEAVDriver@Avian@Infineon@@AEAPEAV123@@Z
	??$forward@AEAPEAVModelBGT60TR11D@TimingModel@Avian@Infineon@@@std@@YAAEAPEAVModelBGT60TR11D@TimingModel@Avian@Infineon@@AEAPEAV1234@@Z
	??$forward@AEAPEAVModelBGT60TRxxC@TimingModel@Avian@Infineon@@@std@@YAAEAPEAVModelBGT60TRxxC@TimingModel@Avian@Infineon@@AEAPEAV1234@@Z
	??$forward@AEAPEAVModelBGT60TRxxD@TimingModel@Avian@Infineon@@@std@@YAAEAPEAVModelBGT60TRxxD@TimingModel@Avian@Infineon@@AEAPEAV1234@@Z
	??$forward@AEAPEAVSequenceParameters11D@TimingModel@Avian@Infineon@@@std@@YAAEAPEAVSequenceParameters11D@TimingModel@Avian@Infineon@@AEAPEAV1234@@Z
	??$forward@AEAPEAVSequenceParameters@TimingModel@Avian@Infineon@@@std@@YAAEAPEAVSequenceParameters@TimingModel@Avian@Infineon@@AEAPEAV1234@@Z
	??$forward@AEAPEAVSequenceParametersD@TimingModel@Avian@Infineon@@@std@@YAAEAPEAVSequenceParametersD@TimingModel@Avian@Infineon@@AEAPEAV1234@@Z
	??$forward@AEAU?$pair@$$CBEI@std@@@std@@YAAEAU?$pair@$$CBEI@0@AEAU10@@Z
	??$forward@AEAU?$pair@$$CBEURegister_Modification@Driver@Avian@Infineon@@@std@@@std@@YAAEAU?$pair@$$CBEURegister_Modification@Driver@Avian@Infineon@@@0@AEAU10@@Z
	??$forward@AEAU?$pair@$$CBV?$basic_string@DU?$char_traits@D@std@@V?$allocator@D@2@@std@@UAddress@?$NamedMemory@GI@@@std@@@std@@YAAEAU?$pair@$$CBV?$basic_string@DU?$char_traits@D@std@@V?$allocator@D@2@@std@@UAddress@?$NamedMemory@GI@@@0@AEAU10@@Z
	??$forward@AEAV<lambda_fe68efc729bc7c1d7a5ab8f29f62bec5>@@@std@@YAAEAV<lambda_fe68efc729bc7c1d7a5ab8f29f62bec5>@@AEAV1@@Z
	??$forward@AEAV?$allocator@D@std@@@std@@YAAEAV?$allocator@D@0@AEAV10@@Z
	??$forward@AEAV?$list@UTimer@ModelBGT60TRxxC@TimingModel@Avian@Infineon@@V?$allocator@UTimer@ModelBGT60TRxxC@TimingModel@Avian@Infineon@@@std@@@std@@@std@@YAAEAV?$list@UTimer@ModelBGT60TRxxC@TimingModel@Avian@Infineon@@V?$allocator@UTimer@ModelBGT60TRxxC@TimingModel@Avian@Infineon@@@std@@@0@AEAV10@@Z
	??$forward@AEAVIControlPort@HW@Avian@Infineon@@@std@@YAAEAVIControlPort@HW@Avian@Infineon@@AEAV1234@@Z
	??$forward@AEAVSequenceParameters11D@TimingModel@Avian@Infineon@@@std@@YAAEAVSequenceParameters11D@TimingModel@Avian@Infineon@@AEAV1234@@Z
	??$forward@AEAVSequenceParameters@TimingModel@Avian@Infineon@@@std@@YAAEAVSequenceParameters@TimingModel@Avian@Infineon@@AEAV1234@@Z
	??$forward@AEAVSequenceParametersD@TimingModel@Avian@Infineon@@@std@@YAAEAVSequenceParametersD@TimingModel@Avian@Infineon@@AEAV1234@@Z
	??$forward@AEAW4Device_Type@Avian@Infineon@@@std@@YAAEAW4Device_Type@Avian@Infineon@@AEAW4123@@Z
	??$forward@AEAY00$$CBD@std@@YAAEAY00$$CBDAEAY00$$CBD@Z
	??$forward@AEAY04$$CBD@std@@YAAEAY04$$CBDAEAY04$$CBD@Z
	??$forward@AEAY05$$CBD@std@@YAAEAY05$$CBDAEAY05$$CBD@Z
	??$forward@AEAY06$$CBD@std@@YAAEAY06$$CBDAEAY06$$CBD@Z
	??$forward@AEAY07$$CBD@std@@YAAEAY07$$CBDAEAY07$$CBD@Z
	??$forward@AEAY08$$CBD@std@@YAAEAY08$$CBDAEAY08$$CBD@Z
	??$forward@AEAY09$$CBD@std@@YAAEAY09$$CBDAEAY09$$CBD@Z
	??$forward@AEAY0BA@$$CBD@std@@YAAEAY0BA@$$CBDAEAY0BA@$$CBD@Z
	??$forward@AEAY0BB@$$CBD@std@@YAAEAY0BB@$$CBDAEAY0BB@$$CBD@Z
	??$forward@AEAY0BC@$$CBD@std@@YAAEAY0BC@$$CBDAEAY0BC@$$CBD@Z
	??$forward@AEAY0BE@$$CBD@std@@YAAEAY0BE@$$CBDAEAY0BE@$$CBD@Z
	??$forward@AEAY0BF@$$CBD@std@@YAAEAY0BF@$$CBDAEAY0BF@$$CBD@Z
	??$forward@AEAY0L@$$CBD@std@@YAAEAY0L@$$CBDAEAY0L@$$CBD@Z
	??$forward@AEAY0M@$$CBD@std@@YAAEAY0M@$$CBDAEAY0M@$$CBD@Z
	??$forward@AEAY0O@$$CBD@std@@YAAEAY0O@$$CBDAEAY0O@$$CBD@Z
	??$forward@AEAY0P@$$CBD@std@@YAAEAY0P@$$CBDAEAY0P@$$CBD@Z
	??$forward@AEBE@std@@YAAEBEAEBE@Z
	??$forward@AEBG@std@@YAAEBGAEBG@Z
	??$forward@AEBI@std@@YAAEBIAEBI@Z
	??$forward@AEBN@std@@YAAEBNAEBN@Z
	??$forward@AEBQEAD@std@@YAAEBQEADAEBQEAD@Z
	??$forward@AEBQEAU?$_List_node@UTimer@ModelBGT60TRxxC@TimingModel@Avian@Infineon@@PEAX@std@@@std@@YAAEBQEAU?$_List_node@UTimer@ModelBGT60TRxxC@TimingModel@Avian@Infineon@@PEAX@0@AEBQEAU10@@Z
	??$forward@AEBQEAU?$_Tree_node@U?$pair@$$CBEI@std@@PEAX@std@@@std@@YAAEBQEAU?$_Tree_node@U?$pair@$$CBEI@std@@PEAX@0@AEBQEAU10@@Z
	??$forward@AEBQEAU?$_Tree_node@U?$pair@$$CBEURegister_Modification@Driver@Avian@Infineon@@@std@@PEAX@std@@@std@@YAAEBQEAU?$_Tree_node@U?$pair@$$CBEURegister_Modification@Driver@Avian@Infineon@@@std@@PEAX@0@AEBQEAU10@@Z
	??$forward@AEBQEAU?$_Tree_node@U?$pair@$$CBIV?$vector@MV?$allocator@M@std@@@std@@@std@@PEAX@std@@@std@@YAAEBQEAU?$_Tree_node@U?$pair@$$CBIV?$vector@MV?$allocator@M@std@@@std@@@std@@PEAX@0@AEBQEAU10@@Z
	??$forward@AEBQEAU?$_Tree_node@U?$pair@$$CBV?$basic_string@DU?$char_traits@D@std@@V?$allocator@D@2@@std@@UAddress@?$NamedMemory@GI@@@std@@PEAX@std@@@std@@YAAEBQEAU?$_Tree_node@U?$pair@$$CBV?$basic_string@DU?$char_traits@D@std@@V?$allocator@D@2@@std@@UAddress@?$NamedMemory@GI@@@std@@PEAX@0@AEBQEAU10@@Z
	??$forward@AEBU?$less@E@std@@@std@@YAAEBU?$less@E@0@AEBU10@@Z
	??$forward@AEBU?$less@I@std@@@std@@YAAEBU?$less@I@0@AEBU10@@Z
	??$forward@AEBU?$less@V?$basic_string@DU?$char_traits@D@std@@V?$allocator@D@2@@std@@@std@@@std@@YAAEBU?$less@V?$basic_string@DU?$char_traits@D@std@@V?$allocator@D@2@@std@@@0@AEBU10@@Z
	??$forward@AEBU?$pair@$$CBV?$basic_string@DU?$char_traits@D@std@@V?$allocator@D@2@@std@@UAddress@?$NamedMemory@GI@@@std@@@std@@YAAEBU?$pair@$$CBV?$basic_string@DU?$char_traits@D@std@@V?$allocator@D@2@@std@@UAddress@?$NamedMemory@GI@@@0@AEBU10@@Z
	??$forward@AEBUStateInfo@StateSequence@TimingModel@Avian@Infineon@@@std@@YAAEBUStateInfo@StateSequence@TimingModel@Avian@Infineon@@AEBU12345@@Z
	??$forward@AEBUpiecewise_construct_t@std@@@std@@YAAEBUpiecewise_construct_t@0@AEBU10@@Z
	??$forward@AEBV<lambda_fe68efc729bc7c1d7a5ab8f29f62bec5>@@@std@@YAAEBV<lambda_fe68efc729bc7c1d7a5ab8f29f62bec5>@@AEBV1@@Z
	??$forward@AEBV?$allocator@D@std@@@std@@YAAEBV?$allocator@D@0@AEBV10@@Z
	??$forward@AEBV?$allocator@G@std@@@std@@YAAEBV?$allocator@G@0@AEBV10@@Z
	??$forward@AEBV?$allocator@I@std@@@std@@YAAEBV?$allocator@I@0@AEBV10@@Z
	??$forward@AEBV?$allocator@M@std@@@std@@YAAEBV?$allocator@M@0@AEBV10@@Z
	??$forward@AEBVDriver@Avian@Infineon@@@std@@YAAEBVDriver@Avian@Infineon@@AEBV123@@Z
	??$forward@AEBVRegisterSet@HW@Avian@Infineon@@@std@@YAAEBVRegisterSet@HW@Avian@Infineon@@AEBV1234@@Z
	??$forward@AEB_K@std@@YAAEB_KAEB_K@Z
	??$forward@AEB_N@std@@YAAEB_NAEB_N@Z
	??$forward@E@std@@YA$$QEAEAEAE@Z
	??$forward@H@std@@YA$$QEAHAEAH@Z
	??$forward@I@std@@YA$$QEAIAEAI@Z
	??$forward@M@std@@YA$$QEAMAEAM@Z
	??$forward@N@std@@YA$$QEANAEAN@Z
	??$forward@PEAE@std@@YA$$QEAPEAEAEAPEAE@Z
	??$forward@PEAI@std@@YA$$QEAPEAIAEAPEAI@Z
	??$forward@PEAU?$_Tree_node@U?$pair@$$CBEI@std@@PEAX@std@@@std@@YA$$QEAPEAU?$_Tree_node@U?$pair@$$CBEI@std@@PEAX@0@AEAPEAU10@@Z
	??$forward@PEAU?$_Tree_node@U?$pair@$$CBEURegister_Modification@Driver@Avian@Infineon@@@std@@PEAX@std@@@std@@YA$$QEAPEAU?$_Tree_node@U?$pair@$$CBEURegister_Modification@Driver@Avian@Infineon@@@std@@PEAX@0@AEAPEAU10@@Z
	??$forward@PEAU?$_Tree_node@U?$pair@$$CBIV?$vector@MV?$allocator@M@std@@@std@@@std@@PEAX@std@@@std@@YA$$QEAPEAU?$_Tree_node@U?$pair@$$CBIV?$vector@MV?$allocator@M@std@@@std@@@std@@PEAX@0@AEAPEAU10@@Z
	??$forward@PEAUChannel_Set_Settings@Driver@Avian@Infineon@@@std@@YA$$QEAPEAUChannel_Set_Settings@Driver@Avian@Infineon@@AEAPEAU1234@@Z
	??$forward@PEAUShape_Settings@Driver@Avian@Infineon@@@std@@YA$$QEAPEAUShape_Settings@Driver@Avian@Infineon@@AEAPEAU1234@@Z
	??$forward@PEAU_Container_base12@std@@@std@@YA$$QEAPEAU_Container_base12@0@AEAPEAU10@@Z
	??$forward@PEAVDriver@Avian@Infineon@@@std@@YA$$QEAPEAVDriver@Avian@Infineon@@AEAPEAV123@@Z
	??$forward@PEAVStrataPort@Avian@Infineon@@@std@@YA$$QEAPEAVStrataPort@Avian@Infineon@@AEAPEAV123@@Z
	??$forward@PEBD@std@@YA$$QEAPEBDAEAPEBD@Z
	??$forward@PEBI@std@@YA$$QEAPEBIAEAPEBI@Z
	??$forward@U?$default_delete@VDriver@Avian@Infineon@@@std@@@std@@YA$$QEAU?$default_delete@VDriver@Avian@Infineon@@@0@AEAU10@@Z
	??$forward@U?$default_delete@VModelBGT60TR11D@TimingModel@Avian@Infineon@@@std@@@std@@YA$$QEAU?$default_delete@VModelBGT60TR11D@TimingModel@Avian@Infineon@@@0@AEAU10@@Z
	??$forward@U?$default_delete@VModelBGT60TRxxC@TimingModel@Avian@Infineon@@@std@@@std@@YA$$QEAU?$default_delete@VModelBGT60TRxxC@TimingModel@Avian@Infineon@@@0@AEAU10@@Z
	??$forward@U?$default_delete@VModelBGT60TRxxD@TimingModel@Avian@Infineon@@@std@@@std@@YA$$QEAU?$default_delete@VModelBGT60TRxxD@TimingModel@Avian@Infineon@@@0@AEAU10@@Z
	??$forward@U?$default_delete@VSequenceParameters11D@TimingModel@Avian@Infineon@@@std@@@std@@YA$$QEAU?$default_delete@VSequenceParameters11D@TimingModel@Avian@Infineon@@@0@AEAU10@@Z
	??$forward@U?$default_delete@VSequenceParameters@TimingModel@Avian@Infineon@@@std@@@std@@YA$$QEAU?$default_delete@VSequenceParameters@TimingModel@Avian@Infineon@@@0@AEAU10@@Z
	??$forward@U?$default_delete@VSequenceParametersD@TimingModel@Avian@Infineon@@@std@@@std@@YA$$QEAU?$default_delete@VSequenceParametersD@TimingModel@Avian@Infineon@@@0@AEAU10@@Z
	??$forward@U?$less@E@std@@@std@@YA$$QEAU?$less@E@0@AEAU10@@Z
	??$forward@U?$less@I@std@@@std@@YA$$QEAU?$less@I@0@AEAU10@@Z
	??$forward@U?$less@V?$basic_string@DU?$char_traits@D@std@@V?$allocator@D@2@@std@@@std@@@std@@YA$$QEAU?$less@V?$basic_string@DU?$char_traits@D@std@@V?$allocator@D@2@@std@@@0@AEAU10@@Z
	??$forward@UStateInfo@StateSequence@TimingModel@Avian@Infineon@@@std@@YA$$QEAUStateInfo@StateSequence@TimingModel@Avian@Infineon@@AEAU12345@@Z
	??$forward@U_One_then_variadic_args_t@std@@@std@@YA$$QEAU_One_then_variadic_args_t@0@AEAU10@@Z
	??$forward@U_Zero_then_variadic_args_t@std@@@std@@YA$$QEAU_Zero_then_variadic_args_t@0@AEAU10@@Z
	??$forward@V?$_Tree_iterator@V?$_Tree_val@U?$_Tree_simple_types@U?$pair@$$CBEI@std@@@std@@@std@@@std@@@std@@YA$$QEAV?$_Tree_iterator@V?$_Tree_val@U?$_Tree_simple_types@U?$pair@$$CBEI@std@@@std@@@std@@@0@AEAV10@@Z
	??$forward@V?$_Tree_iterator@V?$_Tree_val@U?$_Tree_simple_types@U?$pair@$$CBIV?$vector@MV?$allocator@M@std@@@std@@@std@@@std@@@std@@@std@@@std@@YA$$QEAV?$_Tree_iterator@V?$_Tree_val@U?$_Tree_simple_types@U?$pair@$$CBIV?$vector@MV?$allocator@M@std@@@std@@@std@@@std@@@std@@@0@AEAV10@@Z
	??$forward@V?$allocator@D@std@@@std@@YA$$QEAV?$allocator@D@0@AEAV10@@Z
	??$forward@V?$allocator@I@std@@@std@@YA$$QEAV?$allocator@I@0@AEAV10@@Z
	??$forward@V?$allocator@U?$_Tree_node@U?$pair@$$CBEI@std@@PEAX@std@@@std@@@std@@YA$$QEAV?$allocator@U?$_Tree_node@U?$pair@$$CBEI@std@@PEAX@std@@@0@AEAV10@@Z
	??$forward@V?$allocator@U?$_Tree_node@U?$pair@$$CBIV?$vector@MV?$allocator@M@std@@@std@@@std@@PEAX@std@@@std@@@std@@YA$$QEAV?$allocator@U?$_Tree_node@U?$pair@$$CBIV?$vector@MV?$allocator@M@std@@@std@@@std@@PEAX@std@@@0@AEAV10@@Z
	??$forward@V?$allocator@U?$_Tree_node@U?$pair@$$CBV?$basic_string@DU?$char_traits@D@std@@V?$allocator@D@2@@std@@UAddress@?$NamedMemory@GI@@@std@@PEAX@std@@@std@@@std@@YA$$QEAV?$allocator@U?$_Tree_node@U?$pair@$$CBV?$basic_string@DU?$char_traits@D@std@@V?$allocator@D@2@@std@@UAddress@?$NamedMemory@GI@@@std@@PEAX@std@@@0@AEAV10@@Z
	??$forward@V?$basic_string@DU?$char_traits@D@std@@V?$allocator@D@2@@std@@@std@@YA$$QEAV?$basic_string@DU?$char_traits@D@std@@V?$allocator@D@2@@0@AEAV10@@Z
	??$forward@V?$tuple@$$QEAE@std@@@std@@YA$$QEAV?$tuple@$$QEAE@0@AEAV10@@Z
	??$forward@V?$tuple@$$V@std@@@std@@YA$$QEAV?$tuple@$$V@0@AEAV10@@Z
	??$forward@V?$tuple@AEBE@std@@@std@@YA$$QEAV?$tuple@AEBE@0@AEAV10@@Z
	??$forward@_N@std@@YA$$QEA_NAEA_N@Z
	??$forward_as_tuple@$$V@std@@YA?AV?$tuple@$$V@0@XZ
	??$forward_as_tuple@AEBE@std@@YA?AV?$tuple@AEBE@0@AEBE@Z
	??$forward_as_tuple@E@std@@YA?AV?$tuple@$$QEAE@0@$$QEAE@Z
	??$getComponent@VIRadarAvian@@@IBoard@@QEAAPEAVIRadarAvian@@E@Z
	??$insert@V?$_Array_iterator@I$01@std@@$0A@@?$vector@IV?$allocator@I@std@@@std@@QEAA?AV?$_Vector_iterator@V?$_Vector_val@U?$_Simple_types@I@std@@@std@@@1@V?$_Vector_const_iterator@V?$_Vector_val@U?$_Simple_types@I@std@@@std@@@1@V?$_Array_iterator@I$01@1@1@Z
	??$invoke@AEAV<lambda_fe68efc729bc7c1d7a5ab8f29f62bec5>@@I$$V@std@@YAXAEAV<lambda_fe68efc729bc7c1d7a5ab8f29f62bec5>@@$$QEAI@Z
	??$isnan@N@@YA_NN@Z
	??$make_pair@AEANAEAN@std@@YA?AU?$pair@NN@0@AEAN0@Z
	??$make_unique@VDriver@Avian@Infineon@@AEAVIControlPort@HW@23@AEAW4Device_Type@23@$0A@@std@@YA?AV?$unique_ptr@VDriver@Avian@Infineon@@U?$default_delete@VDriver@Avian@Infineon@@@std@@@0@AEAVIControlPort@HW@Avian@Infineon@@AEAW4Device_Type@45@@Z
	??$make_unique@VDriver@Avian@Infineon@@AEAVIControlPort@HW@23@AEBV123@$0A@@std@@YA?AV?$unique_ptr@VDriver@Avian@Infineon@@U?$default_delete@VDriver@Avian@Infineon@@@std@@@0@AEAVIControlPort@HW@Avian@Infineon@@AEBVDriver@45@@Z
	??$make_unique@VModelBGT60TR11D@TimingModel@Avian@Infineon@@AEAVSequenceParameters11D@234@_N$0A@@std@@YA?AV?$unique_ptr@VModelBGT60TR11D@TimingModel@Avian@Infineon@@U?$default_delete@VModelBGT60TR11D@TimingModel@Avian@Infineon@@@std@@@0@AEAVSequenceParameters11D@TimingModel@Avian@Infineon@@$$QEA_N@Z
	??$make_unique@VModelBGT60TRxxC@TimingModel@Avian@Infineon@@AEAVSequenceParameters@234@_N$0A@@std@@YA?AV?$unique_ptr@VModelBGT60TRxxC@TimingModel@Avian@Infineon@@U?$default_delete@VModelBGT60TRxxC@TimingModel@Avian@Infineon@@@std@@@0@AEAVSequenceParameters@TimingModel@Avian@Infineon@@$$QEA_N@Z
	??$make_unique@VModelBGT60TRxxD@TimingModel@Avian@Infineon@@AEAVSequenceParametersD@234@_N$0A@@std@@YA?AV?$unique_ptr@VModelBGT60TRxxD@TimingModel@Avian@Infineon@@U?$default_delete@VModelBGT60TRxxD@TimingModel@Avian@Infineon@@@std@@@0@AEAVSequenceParametersD@TimingModel@Avian@Infineon@@$$QEA_N@Z
	??$make_unique@VSequenceParameters11D@TimingModel@Avian@Infineon@@AEBVRegisterSet@HW@34@AEAW4Device_Type@34@AEAN$0A@@std@@YA?AV?$unique_ptr@VSequenceParameters11D@TimingModel@Avian@Infineon@@U?$default_delete@VSequenceParameters11D@TimingModel@Avian@Infineon@@@std@@@0@AEBVRegisterSet@HW@Avian@Infineon@@AEAW4Device_Type@45@AEAN@Z
	??$make_unique@VSequenceParameters@TimingModel@Avian@Infineon@@AEBVRegisterSet@HW@34@AEAW4Device_Type@34@AEAN$0A@@std@@YA?AV?$unique_ptr@VSequenceParameters@TimingModel@Avian@Infineon@@U?$default_delete@VSequenceParameters@TimingModel@Avian@Infineon@@@std@@@0@AEBVRegisterSet@HW@Avian@Infineon@@AEAW4Device_Type@45@AEAN@Z
	??$make_unique@VSequenceParametersD@TimingModel@Avian@Infineon@@AEBVRegisterSet@HW@34@AEAW4Device_Type@34@AEAN$0A@@std@@YA?AV?$unique_ptr@VSequenceParametersD@TimingModel@Avian@Infineon@@U?$default_delete@VSequenceParametersD@TimingModel@Avian@Infineon@@@std@@@0@AEBVRegisterSet@HW@Avian@Infineon@@AEAW4Device_Type@45@AEAN@Z
	??$max@H@std@@YAAEBHAEBH0@Z
	??$max@I@std@@YAAEBIAEBI0@Z
	??$max@PEAD@std@@YAAEBQEADAEBQEAD0@Z
	??$max@_K@std@@YAAEB_KAEB_K0@Z
	??$min@I@std@@YAAEBIAEBI0@Z
	??$min@_K@std@@YAAEB_KAEB_K0@Z
	??$move@AEAE@std@@YA$$QEAEAEAE@Z
	??$move@AEAI@std@@YA$$QEAIAEAI@Z
	??$move@AEAPEAI@std@@YA$$QEAPEAIAEAPEAI@Z
	??$move@AEAPEAU?$_Tree_node@U?$pair@$$CBEI@std@@PEAX@std@@@std@@YA$$QEAPEAU?$_Tree_node@U?$pair@$$CBEI@std@@PEAX@0@AEAPEAU10@@Z
	??$move@AEAPEAU?$_Tree_node@U?$pair@$$CBIV?$vector@MV?$allocator@M@std@@@std@@@std@@PEAX@std@@@std@@YA$$QEAPEAU?$_Tree_node@U?$pair@$$CBIV?$vector@MV?$allocator@M@std@@@std@@@std@@PEAX@0@AEAPEAU10@@Z
	??$move@AEAPEBI@std@@YA$$QEAPEBIAEAPEBI@Z
	??$move@AEAUStateInfo@StateSequence@TimingModel@Avian@Infineon@@@std@@YA$$QEAUStateInfo@StateSequence@TimingModel@Avian@Infineon@@AEAU12345@@Z
	??$move@AEAV?$_Func_class@XI@std@@@std@@YA$$QEAV?$_Func_class@XI@0@AEAV10@@Z
	??$move@AEAV?$_Func_class@XPEAVStrataPort@Avian@Infineon@@I@std@@@std@@YA$$QEAV?$_Func_class@XPEAVStrataPort@Avian@Infineon@@I@0@AEAV10@@Z
	??$move@AEAV?$allocator@D@std@@@std@@YA$$QEAV?$allocator@D@0@AEAV10@@Z
	??$move@AEAV?$allocator@I@std@@@std@@YA$$QEAV?$allocator@I@0@AEAV10@@Z
	??$move@AEAV?$allocator@U?$_Tree_node@U?$pair@$$CBEI@std@@PEAX@std@@@std@@@std@@YA$$QEAV?$allocator@U?$_Tree_node@U?$pair@$$CBEI@std@@PEAX@std@@@0@AEAV10@@Z
	??$move@AEAV?$allocator@U?$_Tree_node@U?$pair@$$CBIV?$vector@MV?$allocator@M@std@@@std@@@std@@PEAX@std@@@std@@@std@@YA$$QEAV?$allocator@U?$_Tree_node@U?$pair@$$CBIV?$vector@MV?$allocator@M@std@@@std@@@std@@PEAX@std@@@0@AEAV10@@Z
	??$move@AEAV?$basic_string@DU?$char_traits@D@std@@V?$allocator@D@2@@std@@@std@@YA$$QEAV?$basic_string@DU?$char_traits@D@std@@V?$allocator@D@2@@0@AEAV10@@Z
	??$move@AEAV?$function@$$A6AXAEAV?$list@UTimer@ModelBGT60TRxxC@TimingModel@Avian@Infineon@@V?$allocator@UTimer@ModelBGT60TRxxC@TimingModel@Avian@Infineon@@@std@@@std@@@Z@std@@@std@@YA$$QEAV?$function@$$A6AXAEAV?$list@UTimer@ModelBGT60TRxxC@TimingModel@Avian@Infineon@@V?$allocator@UTimer@ModelBGT60TRxxC@TimingModel@Avian@Infineon@@@std@@@std@@@Z@0@AEAV10@@Z
	??$move@AEAV?$list@UTimer@ModelBGT60TRxxC@TimingModel@Avian@Infineon@@V?$allocator@UTimer@ModelBGT60TRxxC@TimingModel@Avian@Infineon@@@std@@@std@@@std@@YA$$QEAV?$list@UTimer@ModelBGT60TRxxC@TimingModel@Avian@Infineon@@V?$allocator@UTimer@ModelBGT60TRxxC@TimingModel@Avian@Infineon@@@std@@@0@AEAV10@@Z
	??$move@AEAV?$map@EIU?$less@E@std@@V?$allocator@U?$pair@$$CBEI@std@@@2@@std@@@std@@YA$$QEAV?$map@EIU?$less@E@std@@V?$allocator@U?$pair@$$CBEI@std@@@2@@0@AEAV10@@Z
	??$move@AEAV?$map@IV?$vector@MV?$allocator@M@std@@@std@@U?$less@I@2@V?$allocator@U?$pair@$$CBIV?$vector@MV?$allocator@M@std@@@std@@@std@@@2@@std@@@std@@YA$$QEAV?$map@IV?$vector@MV?$allocator@M@std@@@std@@U?$less@I@2@V?$allocator@U?$pair@$$CBIV?$vector@MV?$allocator@M@std@@@std@@@std@@@2@@0@AEAV10@@Z
	??$move@AEAV?$tuple@$$QEAE@std@@@std@@YA$$QEAV?$tuple@$$QEAE@0@AEAV10@@Z
	??$move@AEAV?$tuple@AEBE@std@@@std@@YA$$QEAV?$tuple@AEBE@0@AEAV10@@Z
	??$move@AEAV?$unique_ptr@VDriver@Avian@Infineon@@U?$default_delete@VDriver@Avian@Infineon@@@std@@@std@@@std@@YA$$QEAV?$unique_ptr@VDriver@Avian@Infineon@@U?$default_delete@VDriver@Avian@Infineon@@@std@@@0@AEAV10@@Z
	??$move@AEAV?$unique_ptr@VSequenceParameters11D@TimingModel@Avian@Infineon@@U?$default_delete@VSequenceParameters11D@TimingModel@Avian@Infineon@@@std@@@std@@@std@@YA$$QEAV?$unique_ptr@VSequenceParameters11D@TimingModel@Avian@Infineon@@U?$default_delete@VSequenceParameters11D@TimingModel@Avian@Infineon@@@std@@@0@AEAV10@@Z
	??$move@AEAV?$unique_ptr@VSequenceParametersD@TimingModel@Avian@Infineon@@U?$default_delete@VSequenceParametersD@TimingModel@Avian@Infineon@@@std@@@std@@@std@@YA$$QEAV?$unique_ptr@VSequenceParametersD@TimingModel@Avian@Infineon@@U?$default_delete@VSequenceParametersD@TimingModel@Avian@Infineon@@@std@@@0@AEAV10@@Z
	??$move@AEA_K@std@@YA$$QEA_KAEA_K@Z
	??$narrow_cast@I_K@@YAI_K@Z
	??$setfill@D@std@@YA?AU?$_Fillobj@D@0@D@Z
	??$sleep_for@_JU?$ratio@$00$0PECEA@@std@@@this_thread@std@@YAXAEBV?$duration@_JU?$ratio@$00$0PECEA@@std@@@chrono@1@@Z
	??$sleep_until@Usteady_clock@chrono@std@@V?$duration@_JU?$ratio@$00$0DLJKMKAA@@std@@@23@@this_thread@std@@YAXAEBV?$time_point@Usteady_clock@chrono@std@@V?$duration@_JU?$ratio@$00$0DLJKMKAA@@std@@@23@@chrono@1@@Z
	??$swap@I@endian@@YAII@Z
	??$swap@PEAU?$_Tree_node@U?$pair@$$CBEI@std@@PEAX@std@@$0A@@std@@YAXAEAPEAU?$_Tree_node@U?$pair@$$CBEI@std@@PEAX@0@0@Z
	??$swap@PEAU?$_Tree_node@U?$pair@$$CBIV?$vector@MV?$allocator@M@std@@@std@@@std@@PEAX@std@@$0A@@std@@YAXAEAPEAU?$_Tree_node@U?$pair@$$CBIV?$vector@MV?$allocator@M@std@@@std@@@std@@PEAX@0@0@Z
	??$swap@V?$_Vector_iterator@V?$_Vector_val@U?$_Simple_types@I@std@@@std@@@std@@@endian@@YAXV?$_Vector_iterator@V?$_Vector_val@U?$_Simple_types@I@std@@@std@@@std@@0@Z
	??$swap@V?$_Vector_iterator@V?$_Vector_val@U?$_Simple_types@I@std@@@std@@@std@@V12@@endian@@YAXV?$_Vector_iterator@V?$_Vector_val@U?$_Simple_types@I@std@@@std@@@std@@00@Z
	??$swap@_K$0A@@std@@YAXAEA_K0@Z
	??$wait_until@Usteady_clock@chrono@std@@V?$duration@_JU?$ratio@$00$0DLJKMKAA@@std@@@23@@condition_variable@std@@QEAA?AW4cv_status@1@AEAV?$unique_lock@Vmutex@std@@@1@AEBV?$time_point@Usteady_clock@chrono@std@@V?$duration@_JU?$ratio@$00$0DLJKMKAA@@std@@@23@@chrono@1@@Z
	??0<lambda_c1360b9bf268940e784deeafc1e34478>@@QEAA@QEBV?$bitset@$03@std@@@Z
	??0<lambda_fe68efc729bc7c1d7a5ab8f29f62bec5>@@QEAA@AEBV0@@Z
	??0<lambda_fe68efc729bc7c1d7a5ab8f29f62bec5>@@QEAA@QEAV?$DataConverter@G@Avian@Infineon@@AEB_KAEBV?$function@$$A6AXI@Z@std@@@Z
	??0?$DataConverter@G@Avian@Infineon@@QEAA@AEAV?$IReadPort@E@HW@12@@Z
	??0?$IFrameListener@VIFrame@@@@QEAA@XZ
	??0?$IPort@E@HW@Avian@Infineon@@QEAA@XZ
	??0?$IReadPort@E@HW@Avian@Infineon@@QEAA@XZ
	??0?$IReadPort@G@HW@Avian@Infineon@@QEAA@XZ
	??0?$StrataControlPortImpl@V?$IPort@E@HW@Avian@Infineon@@@Internal@Avian@Infineon@@QEAA@PEAVBoardInstance@@@Z
	??0?$StrataControlPortImpl@VIControlPort@HW@Avian@Infineon@@@Internal@Avian@Infineon@@QEAA@PEAVBoardInstance@@@Z
	??0?$_Alloc_construct_ptr@V?$allocator@U?$_List_node@UTimer@ModelBGT60TRxxC@TimingModel@Avian@Infineon@@PEAX@std@@@std@@@std@@QEAA@AEAV?$allocator@U?$_List_node@UTimer@ModelBGT60TRxxC@TimingModel@Avian@Infineon@@PEAX@std@@@1@@Z
	??0?$_Alloc_construct_ptr@V?$allocator@U?$_Tree_node@U?$pair@$$CBEI@std@@PEAX@std@@@std@@@std@@QEAA@AEAV?$allocator@U?$_Tree_node@U?$pair@$$CBEI@std@@PEAX@std@@@1@@Z
	??0?$_Alloc_construct_ptr@V?$allocator@U?$_Tree_node@U?$pair@$$CBEURegister_Modification@Driver@Avian@Infineon@@@std@@PEAX@std@@@std@@@std@@QEAA@AEAV?$allocator@U?$_Tree_node@U?$pair@$$CBEURegister_Modification@Driver@Avian@Infineon@@@std@@PEAX@std@@@1@@Z
	??0?$_Alloc_construct_ptr@V?$allocator@U?$_Tree_node@U?$pair@$$CBIV?$vector@MV?$allocator@M@std@@@std@@@std@@PEAX@std@@@std@@@std@@QEAA@AEAV?$allocator@U?$_Tree_node@U?$pair@$$CBIV?$vector@MV?$allocator@M@std@@@std@@@std@@PEAX@std@@@1@@Z
	??0?$_Alloc_construct_ptr@V?$allocator@U?$_Tree_node@U?$pair@$$CBV?$basic_string@DU?$char_traits@D@std@@V?$allocator@D@2@@std@@UAddress@?$NamedMemory@GI@@@std@@PEAX@std@@@std@@@std@@QEAA@AEAV?$allocator@U?$_Tree_node@U?$pair@$$CBV?$basic_string@DU?$char_traits@D@std@@V?$allocator@D@2@@std@@UAddress@?$NamedMemory@GI@@@std@@PEAX@std@@@1@@Z
	??0?$_Array_const_iterator@E$0BIA@@std@@QEAA@PEBE_K@Z
	??0?$_Array_const_iterator@I$01@std@@QEAA@PEBI_K@Z
	??0?$_Array_iterator@E$0BIA@@std@@QEAA@PEAE_K@Z
	??0?$_Array_iterator@I$01@std@@QEAA@PEAI_K@Z
	??0?$_Container_proxy_ptr12@V?$allocator@U_Container_proxy@std@@@std@@@std@@QEAA@AEAV?$allocator@U_Container_proxy@std@@@1@AEAU_Container_base12@1@@Z
	??0?$_Fillobj@D@std@@QEAA@D@Z
	??0?$_Func_base@XAEAV?$list@UTimer@ModelBGT60TRxxC@TimingModel@Avian@Infineon@@V?$allocator@UTimer@ModelBGT60TRxxC@TimingModel@Avian@Infineon@@@std@@@std@@@std@@QEAA@XZ
	??0?$_Func_base@XI@std@@QEAA@XZ
	??0?$_Func_class@XAEAV?$list@UTimer@ModelBGT60TRxxC@TimingModel@Avian@Infineon@@V?$allocator@UTimer@ModelBGT60TRxxC@TimingModel@Avian@Infineon@@@std@@@std@@@std@@QEAA@XZ
	??0?$_Func_class@XI@std@@QEAA@XZ
	??0?$_Func_class@XPEAVStrataPort@Avian@Infineon@@I@std@@QEAA@XZ
	??0?$_List_const_iterator@V?$_List_val@U?$_List_simple_types@UTimer@ModelBGT60TRxxC@TimingModel@Avian@Infineon@@@std@@@std@@@std@@QEAA@$$QEAV01@@Z
	??0?$_List_const_iterator@V?$_List_val@U?$_List_simple_types@UTimer@ModelBGT60TRxxC@TimingModel@Avian@Infineon@@@std@@@std@@@std@@QEAA@AEBV01@@Z
	??0?$_List_const_iterator@V?$_List_val@U?$_List_simple_types@UTimer@ModelBGT60TRxxC@TimingModel@Avian@Infineon@@@std@@@std@@@std@@QEAA@PEAU?$_List_node@UTimer@ModelBGT60TRxxC@TimingModel@Avian@Infineon@@PEAX@1@PEBV?$_List_val@U?$_List_simple_types@UTimer@ModelBGT60TRxxC@TimingModel@Avian@Infineon@@@std@@@1@@Z
	??0?$_List_iterator@V?$_List_val@U?$_List_simple_types@UTimer@ModelBGT60TRxxC@TimingModel@Avian@Infineon@@@std@@@std@@@std@@QEAA@$$QEAV01@@Z
	??0?$_List_iterator@V?$_List_val@U?$_List_simple_types@UTimer@ModelBGT60TRxxC@TimingModel@Avian@Infineon@@@std@@@std@@@std@@QEAA@AEBV01@@Z
	??0?$_List_iterator@V?$_List_val@U?$_List_simple_types@UTimer@ModelBGT60TRxxC@TimingModel@Avian@Infineon@@@std@@@std@@@std@@QEAA@PEAU?$_List_node@UTimer@ModelBGT60TRxxC@TimingModel@Avian@Infineon@@PEAX@1@PEBV?$_List_val@U?$_List_simple_types@UTimer@ModelBGT60TRxxC@TimingModel@Avian@Infineon@@@std@@@1@@Z
	??0?$_List_unchecked_const_iterator@V?$_List_val@U?$_List_simple_types@UTimer@ModelBGT60TRxxC@TimingModel@Avian@Infineon@@@std@@@std@@U_Iterator_base0@2@@std@@QEAA@PEAU?$_List_node@UTimer@ModelBGT60TRxxC@TimingModel@Avian@Infineon@@PEAX@1@PEBV?$_List_val@U?$_List_simple_types@UTimer@ModelBGT60TRxxC@TimingModel@Avian@Infineon@@@std@@@1@@Z
	??0?$_List_unchecked_const_iterator@V?$_List_val@U?$_List_simple_types@UTimer@ModelBGT60TRxxC@TimingModel@Avian@Infineon@@@std@@@std@@U_Iterator_base12@2@@std@@QEAA@$$QEAV01@@Z
	??0?$_List_unchecked_const_iterator@V?$_List_val@U?$_List_simple_types@UTimer@ModelBGT60TRxxC@TimingModel@Avian@Infineon@@@std@@@std@@U_Iterator_base12@2@@std@@QEAA@AEBV01@@Z
	??0?$_List_unchecked_const_iterator@V?$_List_val@U?$_List_simple_types@UTimer@ModelBGT60TRxxC@TimingModel@Avian@Infineon@@@std@@@std@@U_Iterator_base12@2@@std@@QEAA@PEAU?$_List_node@UTimer@ModelBGT60TRxxC@TimingModel@Avian@Infineon@@PEAX@1@PEBV?$_List_val@U?$_List_simple_types@UTimer@ModelBGT60TRxxC@TimingModel@Avian@Infineon@@@std@@@1@@Z
	??0?$_List_unchecked_iterator@V?$_List_val@U?$_List_simple_types@UTimer@ModelBGT60TRxxC@TimingModel@Avian@Infineon@@@std@@@std@@@std@@QEAA@PEAU?$_List_node@UTimer@ModelBGT60TRxxC@TimingModel@Avian@Infineon@@PEAX@1@PEBV?$_List_val@U?$_List_simple_types@UTimer@ModelBGT60TRxxC@TimingModel@Avian@Infineon@@@std@@@1@@Z
	??0?$_List_val@U?$_List_simple_types@UTimer@ModelBGT60TRxxC@TimingModel@Avian@Infineon@@@std@@@std@@QEAA@XZ
	??0?$_Ptr_base@VIBridge@@@std@@IEAA@XZ
	??0?$_String_val@U?$_Simple_types@D@std@@@std@@QEAA@XZ
	??0?$_Tree@V?$_Tmap_traits@EIU?$less@E@std@@V?$allocator@U?$pair@$$CBEI@std@@@2@$0A@@std@@@std@@QEAA@$$QEAV01@@Z
	??0?$_Tree@V?$_Tmap_traits@EIU?$less@E@std@@V?$allocator@U?$pair@$$CBEI@std@@@2@$0A@@std@@@std@@QEAA@AEBU?$less@E@1@@Z
	??0?$_Tree@V?$_Tmap_traits@EURegister_Modification@Driver@Avian@Infineon@@U?$less@E@std@@V?$allocator@U?$pair@$$CBEURegister_Modification@Driver@Avian@Infineon@@@std@@@6@$0A@@std@@@std@@QEAA@AEBU?$less@E@1@@Z
	??0?$_Tree@V?$_Tmap_traits@IV?$vector@MV?$allocator@M@std@@@std@@U?$less@I@2@V?$allocator@U?$pair@$$CBIV?$vector@MV?$allocator@M@std@@@std@@@std@@@2@$0A@@std@@@std@@QEAA@$$QEAV01@@Z
	??0?$_Tree@V?$_Tmap_traits@IV?$vector@MV?$allocator@M@std@@@std@@U?$less@I@2@V?$allocator@U?$pair@$$CBIV?$vector@MV?$allocator@M@std@@@std@@@std@@@2@$0A@@std@@@std@@QEAA@AEBU?$less@I@1@@Z
	??0?$_Tree@V?$_Tmap_traits@V?$basic_string@DU?$char_traits@D@std@@V?$allocator@D@2@@std@@UAddress@?$NamedMemory@GI@@U?$less@V?$basic_string@DU?$char_traits@D@std@@V?$allocator@D@2@@std@@@2@V?$allocator@U?$pair@$$CBV?$basic_string@DU?$char_traits@D@std@@V?$allocator@D@2@@std@@UAddress@?$NamedMemory@GI@@@std@@@2@$0A@@std@@@std@@QEAA@AEBU?$less@V?$basic_string@DU?$char_traits@D@std@@V?$allocator@D@2@@std@@@1@@Z
	??0?$_Tree_const_iterator@V?$_Tree_val@U?$_Tree_simple_types@U?$pair@$$CBEI@std@@@std@@@std@@@std@@QEAA@$$QEAV01@@Z
	??0?$_Tree_const_iterator@V?$_Tree_val@U?$_Tree_simple_types@U?$pair@$$CBEI@std@@@std@@@std@@@std@@QEAA@PEAU?$_Tree_node@U?$pair@$$CBEI@std@@PEAX@1@PEBV?$_Tree_val@U?$_Tree_simple_types@U?$pair@$$CBEI@std@@@std@@@1@@Z
	??0?$_Tree_const_iterator@V?$_Tree_val@U?$_Tree_simple_types@U?$pair@$$CBIV?$vector@MV?$allocator@M@std@@@std@@@std@@@std@@@std@@@std@@QEAA@$$QEAV01@@Z
	??0?$_Tree_const_iterator@V?$_Tree_val@U?$_Tree_simple_types@U?$pair@$$CBIV?$vector@MV?$allocator@M@std@@@std@@@std@@@std@@@std@@@std@@QEAA@PEAU?$_Tree_node@U?$pair@$$CBIV?$vector@MV?$allocator@M@std@@@std@@@std@@PEAX@1@PEBV?$_Tree_val@U?$_Tree_simple_types@U?$pair@$$CBIV?$vector@MV?$allocator@M@std@@@std@@@std@@@std@@@1@@Z
	??0?$_Tree_head_scoped_ptr@V?$allocator@U?$_Tree_node@U?$pair@$$CBEI@std@@PEAX@std@@@std@@V?$_Tree_val@U?$_Tree_simple_types@U?$pair@$$CBEI@std@@@std@@@2@@std@@QEAA@AEAV?$allocator@U?$_Tree_node@U?$pair@$$CBEI@std@@PEAX@std@@@1@AEAV?$_Tree_val@U?$_Tree_simple_types@U?$pair@$$CBEI@std@@@std@@@1@@Z
	??0?$_Tree_head_scoped_ptr@V?$allocator@U?$_Tree_node@U?$pair@$$CBV?$basic_string@DU?$char_traits@D@std@@V?$allocator@D@2@@std@@UAddress@?$NamedMemory@GI@@@std@@PEAX@std@@@std@@V?$_Tree_val@U?$_Tree_simple_types@U?$pair@$$CBV?$basic_string@DU?$char_traits@D@std@@V?$allocator@D@2@@std@@UAddress@?$NamedMemory@GI@@@std@@@std@@@2@@std@@QEAA@AEAV?$allocator@U?$_Tree_node@U?$pair@$$CBV?$basic_string@DU?$char_traits@D@std@@V?$allocator@D@2@@std@@UAddress@?$NamedMemory@GI@@@std@@PEAX@std@@@1@AEAV?$_Tree_val@U?$_Tree_simple_types@U?$pair@$$CBV?$basic_string@DU?$char_traits@D@std@@V?$allocator@D@2@@std@@UAddress@?$NamedMemory@GI@@@std@@@std@@@1@@Z
	??0?$_Tree_iterator@V?$_Tree_val@U?$_Tree_simple_types@U?$pair@$$CBEI@std@@@std@@@std@@@std@@QEAA@$$QEAV01@@Z
	??0?$_Tree_iterator@V?$_Tree_val@U?$_Tree_simple_types@U?$pair@$$CBEI@std@@@std@@@std@@@std@@QEAA@PEAU?$_Tree_node@U?$pair@$$CBEI@std@@PEAX@1@PEBV?$_Tree_val@U?$_Tree_simple_types@U?$pair@$$CBEI@std@@@std@@@1@@Z
	??0?$_Tree_iterator@V?$_Tree_val@U?$_Tree_simple_types@U?$pair@$$CBIV?$vector@MV?$allocator@M@std@@@std@@@std@@@std@@@std@@@std@@QEAA@$$QEAV01@@Z
	??0?$_Tree_iterator@V?$_Tree_val@U?$_Tree_simple_types@U?$pair@$$CBIV?$vector@MV?$allocator@M@std@@@std@@@std@@@std@@@std@@@std@@QEAA@PEAU?$_Tree_node@U?$pair@$$CBIV?$vector@MV?$allocator@M@std@@@std@@@std@@PEAX@1@PEBV?$_Tree_val@U?$_Tree_simple_types@U?$pair@$$CBIV?$vector@MV?$allocator@M@std@@@std@@@std@@@std@@@1@@Z
	??0?$_Tree_temp_node_alloc@V?$allocator@U?$_Tree_node@U?$pair@$$CBEI@std@@PEAX@std@@@std@@@std@@QEAA@AEAV?$allocator@U?$_Tree_node@U?$pair@$$CBEI@std@@PEAX@std@@@1@@Z
	??0?$_Tree_temp_node_alloc@V?$allocator@U?$_Tree_node@U?$pair@$$CBEURegister_Modification@Driver@Avian@Infineon@@@std@@PEAX@std@@@std@@@std@@QEAA@AEAV?$allocator@U?$_Tree_node@U?$pair@$$CBEURegister_Modification@Driver@Avian@Infineon@@@std@@PEAX@std@@@1@@Z
	??0?$_Tree_temp_node_alloc@V?$allocator@U?$_Tree_node@U?$pair@$$CBIV?$vector@MV?$allocator@M@std@@@std@@@std@@PEAX@std@@@std@@@std@@QEAA@AEAV?$allocator@U?$_Tree_node@U?$pair@$$CBIV?$vector@MV?$allocator@M@std@@@std@@@std@@PEAX@std@@@1@@Z
	??0?$_Tree_temp_node_alloc@V?$allocator@U?$_Tree_node@U?$pair@$$CBV?$basic_string@DU?$char_traits@D@std@@V?$allocator@D@2@@std@@UAddress@?$NamedMemory@GI@@@std@@PEAX@std@@@std@@@std@@QEAA@AEAV?$allocator@U?$_Tree_node@U?$pair@$$CBV?$basic_string@DU?$char_traits@D@std@@V?$allocator@D@2@@std@@UAddress@?$NamedMemory@GI@@@std@@PEAX@std@@@1@@Z
	??0?$_Tree_unchecked_const_iterator@V?$_Tree_val@U?$_Tree_simple_types@U?$pair@$$CBEI@std@@@std@@@std@@U_Iterator_base0@2@@std@@QEAA@PEAU?$_Tree_node@U?$pair@$$CBEI@std@@PEAX@1@PEBV?$_Tree_val@U?$_Tree_simple_types@U?$pair@$$CBEI@std@@@std@@@1@@Z
	??0?$_Tree_unchecked_const_iterator@V?$_Tree_val@U?$_Tree_simple_types@U?$pair@$$CBEI@std@@@std@@@std@@U_Iterator_base12@2@@std@@QEAA@$$QEAV01@@Z
	??0?$_Tree_unchecked_const_iterator@V?$_Tree_val@U?$_Tree_simple_types@U?$pair@$$CBEI@std@@@std@@@std@@U_Iterator_base12@2@@std@@QEAA@PEAU?$_Tree_node@U?$pair@$$CBEI@std@@PEAX@1@PEBV?$_Tree_val@U?$_Tree_simple_types@U?$pair@$$CBEI@std@@@std@@@1@@Z
	??0?$_Tree_unchecked_const_iterator@V?$_Tree_val@U?$_Tree_simple_types@U?$pair@$$CBEURegister_Modification@Driver@Avian@Infineon@@@std@@@std@@@std@@U_Iterator_base0@2@@std@@QEAA@PEAU?$_Tree_node@U?$pair@$$CBEURegister_Modification@Driver@Avian@Infineon@@@std@@PEAX@1@PEBV?$_Tree_val@U?$_Tree_simple_types@U?$pair@$$CBEURegister_Modification@Driver@Avian@Infineon@@@std@@@std@@@1@@Z
	??0?$_Tree_unchecked_const_iterator@V?$_Tree_val@U?$_Tree_simple_types@U?$pair@$$CBIV?$vector@MV?$allocator@M@std@@@std@@@std@@@std@@@std@@U_Iterator_base12@2@@std@@QEAA@$$QEAV01@@Z
	??0?$_Tree_unchecked_const_iterator@V?$_Tree_val@U?$_Tree_simple_types@U?$pair@$$CBIV?$vector@MV?$allocator@M@std@@@std@@@std@@@std@@@std@@U_Iterator_base12@2@@std@@QEAA@PEAU?$_Tree_node@U?$pair@$$CBIV?$vector@MV?$allocator@M@std@@@std@@@std@@PEAX@1@PEBV?$_Tree_val@U?$_Tree_simple_types@U?$pair@$$CBIV?$vector@MV?$allocator@M@std@@@std@@@std@@@std@@@1@@Z
	??0?$_Tree_unchecked_const_iterator@V?$_Tree_val@U?$_Tree_simple_types@U?$pair@$$CBV?$basic_string@DU?$char_traits@D@std@@V?$allocator@D@2@@std@@UAddress@?$NamedMemory@GI@@@std@@@std@@@std@@U_Iterator_base0@2@@std@@QEAA@PEAU?$_Tree_node@U?$pair@$$CBV?$basic_string@DU?$char_traits@D@std@@V?$allocator@D@2@@std@@UAddress@?$NamedMemory@GI@@@std@@PEAX@1@PEBV?$_Tree_val@U?$_Tree_simple_types@U?$pair@$$CBV?$basic_string@DU?$char_traits@D@std@@V?$allocator@D@2@@std@@UAddress@?$NamedMemory@GI@@@std@@@std@@@1@@Z
	??0?$_Tree_val@U?$_Tree_simple_types@U?$pair@$$CBEI@std@@@std@@@std@@QEAA@XZ
	??0?$_Tree_val@U?$_Tree_simple_types@U?$pair@$$CBEURegister_Modification@Driver@Avian@Infineon@@@std@@@std@@@std@@QEAA@XZ
	??0?$_Tree_val@U?$_Tree_simple_types@U?$pair@$$CBIV?$vector@MV?$allocator@M@std@@@std@@@std@@@std@@@std@@QEAA@XZ
	??0?$_Tree_val@U?$_Tree_simple_types@U?$pair@$$CBV?$basic_string@DU?$char_traits@D@std@@V?$allocator@D@2@@std@@UAddress@?$NamedMemory@GI@@@std@@@std@@@std@@QEAA@XZ
	??0?$_Uninitialized_backout_al@V?$allocator@G@std@@@std@@QEAA@PEAGAEAV?$allocator@G@1@@Z
	??0?$_Uninitialized_backout_al@V?$allocator@I@std@@@std@@QEAA@PEAIAEAV?$allocator@I@1@@Z
	??0?$_Uninitialized_backout_al@V?$allocator@M@std@@@std@@QEAA@PEAMAEAV?$allocator@M@1@@Z
	??0?$_Uninitialized_backout_al@V?$allocator@UStateInfo@StateSequence@TimingModel@Avian@Infineon@@@std@@@std@@QEAA@PEAUStateInfo@StateSequence@TimingModel@Avian@Infineon@@AEAV?$allocator@UStateInfo@StateSequence@TimingModel@Avian@Infineon@@@1@@Z
	??0?$_Vector_const_iterator@V?$_Vector_val@U?$_Simple_types@I@std@@@std@@@std@@QEAA@$$QEAV01@@Z
	??0?$_Vector_const_iterator@V?$_Vector_val@U?$_Simple_types@I@std@@@std@@@std@@QEAA@AEBV01@@Z
	??0?$_Vector_const_iterator@V?$_Vector_val@U?$_Simple_types@I@std@@@std@@@std@@QEAA@PEAIPEBU_Container_base12@1@@Z
	??0?$_Vector_const_iterator@V?$_Vector_val@U?$_Simple_types@UStateInfo@StateSequence@TimingModel@Avian@Infineon@@@std@@@std@@@std@@QEAA@$$QEAV01@@Z
	??0?$_Vector_const_iterator@V?$_Vector_val@U?$_Simple_types@UStateInfo@StateSequence@TimingModel@Avian@Infineon@@@std@@@std@@@std@@QEAA@AEBV01@@Z
	??0?$_Vector_const_iterator@V?$_Vector_val@U?$_Simple_types@UStateInfo@StateSequence@TimingModel@Avian@Infineon@@@std@@@std@@@std@@QEAA@PEAUStateInfo@StateSequence@TimingModel@Avian@Infineon@@PEBU_Container_base12@1@@Z
	??0?$_Vector_iterator@V?$_Vector_val@U?$_Simple_types@I@std@@@std@@@std@@QEAA@$$QEAV01@@Z
	??0?$_Vector_iterator@V?$_Vector_val@U?$_Simple_types@I@std@@@std@@@std@@QEAA@AEBV01@@Z
	??0?$_Vector_iterator@V?$_Vector_val@U?$_Simple_types@I@std@@@std@@@std@@QEAA@PEAIPEBU_Container_base12@1@@Z
	??0?$_Vector_iterator@V?$_Vector_val@U?$_Simple_types@UStateInfo@StateSequence@TimingModel@Avian@Infineon@@@std@@@std@@@std@@QEAA@PEAUStateInfo@StateSequence@TimingModel@Avian@Infineon@@PEBU_Container_base12@1@@Z
	??0?$_Vector_val@U?$_Simple_types@G@std@@@std@@QEAA@XZ
	??0?$_Vector_val@U?$_Simple_types@I@std@@@std@@QEAA@PEAI00@Z
	??0?$_Vector_val@U?$_Simple_types@I@std@@@std@@QEAA@XZ
	??0?$_Vector_val@U?$_Simple_types@M@std@@@std@@QEAA@XZ
	??0?$_Vector_val@U?$_Simple_types@UStateInfo@StateSequence@TimingModel@Avian@Infineon@@@std@@@std@@QEAA@XZ
	??0?$allocator@D@std@@QEAA@XZ
	??0?$allocator@G@std@@QEAA@XZ
	??0?$allocator@I@std@@QEAA@XZ
	??0?$allocator@M@std@@QEAA@XZ
	??0?$allocator@U?$_List_node@UTimer@ModelBGT60TRxxC@TimingModel@Avian@Infineon@@PEAX@std@@@std@@QEAA@XZ
	??0?$allocator@U?$_Tree_node@U?$pair@$$CBEI@std@@PEAX@std@@@std@@QEAA@XZ
	??0?$allocator@U?$_Tree_node@U?$pair@$$CBEURegister_Modification@Driver@Avian@Infineon@@@std@@PEAX@std@@@std@@QEAA@XZ
	??0?$allocator@U?$_Tree_node@U?$pair@$$CBIV?$vector@MV?$allocator@M@std@@@std@@@std@@PEAX@std@@@std@@QEAA@XZ
	??0?$allocator@U?$_Tree_node@U?$pair@$$CBV?$basic_string@DU?$char_traits@D@std@@V?$allocator@D@2@@std@@UAddress@?$NamedMemory@GI@@@std@@PEAX@std@@@std@@QEAA@XZ
	??0?$allocator@UStateInfo@StateSequence@TimingModel@Avian@Infineon@@@std@@QEAA@XZ
	??0?$basic_ostringstream@DU?$char_traits@D@std@@V?$allocator@D@2@@std@@QEAA@XZ
	??0?$basic_string@DU?$char_traits@D@std@@V?$allocator@D@2@@std@@QEAA@$$QEAV01@@Z
	??0?$basic_string@DU?$char_traits@D@std@@V?$allocator@D@2@@std@@QEAA@AEBV01@@Z
	??0?$basic_string@DU?$char_traits@D@std@@V?$allocator@D@2@@std@@QEAA@AEBV?$allocator@D@1@@Z
	??0?$basic_string@DU?$char_traits@D@std@@V?$allocator@D@2@@std@@QEAA@QEBD@Z
	??0?$basic_string@DU?$char_traits@D@std@@V?$allocator@D@2@@std@@QEAA@U_String_constructor_concat_tag@1@AEAV01@1@Z
	??0?$basic_string@DU?$char_traits@D@std@@V?$allocator@D@2@@std@@QEAA@U_String_constructor_concat_tag@1@AEBV01@QEBD_K23@Z
	??0?$basic_string@DU?$char_traits@D@std@@V?$allocator@D@2@@std@@QEAA@XZ
	??0?$basic_string@DU?$char_traits@D@std@@V?$allocator@D@2@@std@@QEAA@_KD@Z
	??0?$basic_string_view@DU?$char_traits@D@std@@@std@@QEAA@QEBD@Z
	??0?$basic_stringbuf@DU?$char_traits@D@std@@V?$allocator@D@2@@std@@QEAA@H@Z
	??0?$basic_stringstream@DU?$char_traits@D@std@@V?$allocator@D@2@@std@@QEAA@XZ
	??0?$bitset@$01@std@@QEAA@_K@Z
	??0?$bitset@$03@std@@QEAA@_K@Z
	??0?$fpos@U_Mbstatet@@@std@@QEAA@_J@Z
	??0?$function@$$A6AXAEAV?$list@UTimer@ModelBGT60TRxxC@TimingModel@Avian@Infineon@@V?$allocator@UTimer@ModelBGT60TRxxC@TimingModel@Avian@Infineon@@@std@@@std@@@Z@std@@QEAA@$$QEAV01@@Z
	??0?$function@$$A6AXAEAV?$list@UTimer@ModelBGT60TRxxC@TimingModel@Avian@Infineon@@V?$allocator@UTimer@ModelBGT60TRxxC@TimingModel@Avian@Infineon@@@std@@@std@@@Z@std@@QEAA@XZ
	??0?$function@$$A6AXI@Z@std@@QEAA@$$T@Z
	??0?$function@$$A6AXI@Z@std@@QEAA@AEBV01@@Z
	??0?$function@$$A6AXPEAVStrataPort@Avian@Infineon@@I@Z@std@@QEAA@$$T@Z
	??0?$function@$$A6AXPEAVStrataPort@Avian@Infineon@@I@Z@std@@QEAA@AEBV01@@Z
	??0?$initializer_list@U?$pair@$$CBV?$basic_string@DU?$char_traits@D@std@@V?$allocator@D@2@@std@@UAddress@?$NamedMemory@GI@@@std@@@std@@QEAA@PEBU?$pair@$$CBV?$basic_string@DU?$char_traits@D@std@@V?$allocator@D@2@@std@@UAddress@?$NamedMemory@GI@@@1@0@Z
	??0?$list@UTimer@ModelBGT60TRxxC@TimingModel@Avian@Infineon@@V?$allocator@UTimer@ModelBGT60TRxxC@TimingModel@Avian@Infineon@@@std@@@std@@QEAA@XZ
	??0?$lock_guard@Vmutex@std@@@std@@QEAA@AEAVmutex@1@@Z
	??0?$map@EIU?$less@E@std@@V?$allocator@U?$pair@$$CBEI@std@@@2@@std@@QEAA@$$QEAV01@@Z
	??0?$map@EIU?$less@E@std@@V?$allocator@U?$pair@$$CBEI@std@@@2@@std@@QEAA@AEBV01@@Z
	??0?$map@EIU?$less@E@std@@V?$allocator@U?$pair@$$CBEI@std@@@2@@std@@QEAA@XZ
	??0?$map@EURegister_Modification@Driver@Avian@Infineon@@U?$less@E@std@@V?$allocator@U?$pair@$$CBEURegister_Modification@Driver@Avian@Infineon@@@std@@@6@@std@@QEAA@XZ
	??0?$map@IV?$vector@MV?$allocator@M@std@@@std@@U?$less@I@2@V?$allocator@U?$pair@$$CBIV?$vector@MV?$allocator@M@std@@@std@@@std@@@2@@std@@QEAA@$$QEAV01@@Z
	??0?$map@IV?$vector@MV?$allocator@M@std@@@std@@U?$less@I@2@V?$allocator@U?$pair@$$CBIV?$vector@MV?$allocator@M@std@@@std@@@std@@@2@@std@@QEAA@XZ
	??0?$map@V?$basic_string@DU?$char_traits@D@std@@V?$allocator@D@2@@std@@UAddress@?$NamedMemory@GI@@U?$less@V?$basic_string@DU?$char_traits@D@std@@V?$allocator@D@2@@std@@@2@V?$allocator@U?$pair@$$CBV?$basic_string@DU?$char_traits@D@std@@V?$allocator@D@2@@std@@UAddress@?$NamedMemory@GI@@@std@@@2@@std@@QEAA@AEBV01@@Z
	??0?$map@V?$basic_string@DU?$char_traits@D@std@@V?$allocator@D@2@@std@@UAddress@?$NamedMemory@GI@@U?$less@V?$basic_string@DU?$char_traits@D@std@@V?$allocator@D@2@@std@@@2@V?$allocator@U?$pair@$$CBV?$basic_string@DU?$char_traits@D@std@@V?$allocator@D@2@@std@@UAddress@?$NamedMemory@GI@@@std@@@2@@std@@QEAA@V?$initializer_list@U?$pair@$$CBV?$basic_string@DU?$char_traits@D@std@@V?$allocator@D@2@@std@@UAddress@?$NamedMemory@GI@@@std@@@1@@Z
	??0?$pair@$$CBV?$basic_string@DU?$char_traits@D@std@@V?$allocator@D@2@@std@@UAddress@?$NamedMemory@GI@@@std@@QEAA@AEBU01@@Z
	??0?$shared_ptr@VIBridge@@@std@@QEAA@AEBV01@@Z
	??0?$time_point@Usteady_clock@chrono@std@@V?$duration@_JU?$ratio@$00$0DLJKMKAA@@std@@@23@@chrono@std@@QEAA@AEBV?$duration@_JU?$ratio@$00$0DLJKMKAA@@std@@@12@@Z
	??0?$tuple@$$QEAE@std@@QEAA@$$QEAV01@@Z
	??0?$tuple@$$V@std@@QEAA@AEBV01@@Z
	??0?$tuple@AEBE@std@@QEAA@$$QEAV01@@Z
	??0?$unique_lock@Vmutex@std@@@std@@QEAA@AEAVmutex@1@@Z
	??0?$vector@GV?$allocator@G@std@@@std@@QEAA@_KAEBV?$allocator@G@1@@Z
	??0?$vector@IV?$allocator@I@std@@@std@@QEAA@$$QEAV01@@Z
	??0?$vector@IV?$allocator@I@std@@@std@@QEAA@XZ
	??0?$vector@IV?$allocator@I@std@@@std@@QEAA@_KAEBV?$allocator@I@1@@Z
	??0?$vector@MV?$allocator@M@std@@@std@@QEAA@_KAEBV?$allocator@M@1@@Z
	??0?$vector@UStateInfo@StateSequence@TimingModel@Avian@Infineon@@V?$allocator@UStateInfo@StateSequence@TimingModel@Avian@Infineon@@@std@@@std@@QEAA@XZ
	??0Continuous_Wave_Controller@Avian@Infineon@@AEAA@AEAVIControlPort@HW@12@V?$unique_ptr@VDriver@Avian@Infineon@@U?$default_delete@VDriver@Avian@Infineon@@@std@@@std@@@Z
	??0Continuous_Wave_Controller@Avian@Infineon@@QEAA@AEAVIControlPort@HW@12@@Z
	??0Continuous_Wave_Controller@Avian@Infineon@@QEAA@AEAVIControlPort@HW@12@AEBVDriver@12@@Z
	??0DataSettingsBgtRadar_t@@QEAA@QEAY01$$CBGGG@Z
	??0DataSettingsBgtRadar_t@@QEAA@XZ
	??0Driver@Avian@Infineon@@QEAA@AEAVIControlPort@HW@12@AEBV012@@Z
	??0Driver@Avian@Infineon@@QEAA@AEAVIControlPort@HW@12@W4Device_Type@12@@Z
	??0DriverError@Avian@Infineon@@QEAA@AEBV012@@Z
	??0DriverError@Avian@Infineon@@QEAA@W4Error@Driver@12@@Z
	??0DummyPort@Avian@Infineon@@QEAA@XZ
	??0Duration@StateSequence@TimingModel@Avian@Infineon@@QEAA@XZ
	??0EConnection@@QEAA@AEBV0@@Z
	??0EConnection@@QEAA@QEBDH0@Z
	??0EException@@IEAA@H@Z
	??0EException@@QEAA@AEBV0@@Z
	??0EGenericException@@QEAA@AEBV0@@Z
	??0EGenericException@@QEAA@QEBDH0@Z
	??0ENarrowCast@@QEAA@AEBV0@@Z
	??0ENarrowCast@@QEAA@H@Z
	??0EProtocolFunction@@QEAA@AEBV0@@Z
	??0Error@Parameter_Extractor@Avian@Infineon@@QEAA@AEBV0123@@Z
	??0Error@Parameter_Extractor@Avian@Infineon@@QEAA@AEBV?$basic_string@DU?$char_traits@D@std@@V?$allocator@D@2@@std@@@Z
	??0Error@Parameter_Extractor@Avian@Infineon@@QEAA@PEBD@Z
	??0IControlPort@HW@Avian@Infineon@@QEAA@XZ
	??0Iterator@StateSequence@TimingModel@Avian@Infineon@@QEAA@AEBV1234@@Z
	??0Iterator@StateSequence@TimingModel@Avian@Infineon@@QEAA@AEBV1234@N@Z
	??0Iterator@StateSequence@TimingModel@Avian@Infineon@@QEAA@AEBV1234@_K@Z
	??0ModelBGT60TR11D@TimingModel@Avian@Infineon@@QEAA@AEBVSequenceParameters11D@123@_N@Z
	??0ModelBGT60TRxxC@TimingModel@Avian@Infineon@@IEAA@AEBVSequenceParameters@123@_NAEBUPowerConsumptionTable@0123@@Z
	??0ModelBGT60TRxxC@TimingModel@Avian@Infineon@@QEAA@AEBVSequenceParameters@123@_N@Z
	??0ModelBGT60TRxxD@TimingModel@Avian@Infineon@@QEAA@AEBVSequenceParametersD@123@_N@Z
	??0Parameter_Extractor@Avian@Infineon@@QEAA@AEBV?$vector@IV?$allocator@I@std@@@std@@W4Device_Type@12@@Z
	??0Parameter_Extractor@Avian@Infineon@@QEAA@V?$map@EIU?$less@E@std@@V?$allocator@U?$pair@$$CBEI@std@@@2@@std@@W4Device_Type@12@@Z
	??0RF_Converter@Value_Conversion@Avian@Infineon@@QEAA@IEE@Z
	??0RegisterSet@HW@Avian@Infineon@@QEAA@$$QEAV0123@@Z
	??0RegisterSet@HW@Avian@Infineon@@QEAA@AEBV0123@@Z
	??0RegisterSet@HW@Avian@Infineon@@QEAA@XZ
	??0Scaled_Timer@Value_Conversion@Avian@Infineon@@QEAA@EE@Z
	??0Scaled_Timer@Value_Conversion@Avian@Infineon@@QEAA@XZ
	??0Scaled_Timer@Value_Conversion@Avian@Infineon@@QEAA@_KEE@Z
	??0Sensor_Meter@Avian@Infineon@@QEAA@AEAVIControlPort@HW@12@W4Device_Type@12@@Z
	??0SequenceParameters11D@TimingModel@Avian@Infineon@@QEAA@AEBVRegisterSet@HW@23@W4Device_Type@23@N@Z
	??0SequenceParameters@TimingModel@Avian@Infineon@@QEAA@AEBVRegisterSet@HW@23@W4Device_Type@23@N@Z
	??0SequenceParametersD@TimingModel@Avian@Infineon@@QEAA@AEBVRegisterSet@HW@23@W4Device_Type@23@N@Z
	??0ShapeGroup@StateSequence@TimingModel@Avian@Infineon@@QEAA@XZ
	??0Shape_Settings@Driver@Avian@Infineon@@QEAA@XZ
	??0StateInfo@StateSequence@TimingModel@Avian@Infineon@@QEAA@$$QEAU01234@@Z
	??0StateInfo@StateSequence@TimingModel@Avian@Infineon@@QEAA@AEBU01234@@Z
	??0StateInfo@StateSequence@TimingModel@Avian@Infineon@@QEAA@XZ
	??0StateList@StateSequence@TimingModel@Avian@Infineon@@QEAA@XZ
	??0StateSequence@TimingModel@Avian@Infineon@@QEAA@AEBVDriver@23@@Z
	??0StateSequence@TimingModel@Avian@Infineon@@QEAA@AEBVRegisterSet@HW@23@W4Device_Type@23@N@Z
	??0StrataPort@Avian@Infineon@@QEAA@PEAVBoardInstance@@@Z
	??0Timer@ModelBGT60TRxxC@TimingModel@Avian@Infineon@@QEAA@V?$basic_string@DU?$char_traits@D@std@@V?$allocator@D@2@@std@@0_K@Z
	??0Timer@ModelBGT60TRxxC@TimingModel@Avian@Infineon@@QEAA@V?$basic_string@DU?$char_traits@D@std@@V?$allocator@D@2@@std@@0_KV?$function@$$A6AXAEAV?$list@UTimer@ModelBGT60TRxxC@TimingModel@Avian@Infineon@@V?$allocator@UTimer@ModelBGT60TRxxC@TimingModel@Avian@Infineon@@@std@@@std@@@Z@6@@Z
	??0_Basic_container_proxy_ptr12@std@@IEAA@XZ
	??0_Bxty@?$_String_val@U?$_Simple_types@D@std@@@std@@QEAA@XZ
	??0_Container_base12@std@@QEAA@XZ
	??0_Container_proxy@std@@QEAA@PEAU_Container_base12@1@@Z
	??0_Iterator_base12@std@@QEAA@AEBU01@@Z
	??0_Iterator_base12@std@@QEAA@XZ
	??0_Iterator_base12_compatible@std@@QEAA@XZ
	??0_Mutex_base@std@@QEAA@H@Z
	??0_Sentry_base@?$basic_ostream@DU?$char_traits@D@std@@@std@@QEAA@AEAV12@@Z
	??0bad_alloc@std@@AEAA@QEBD@Z
	??0bad_alloc@std@@QEAA@AEBV01@@Z
	??0bad_array_new_length@std@@QEAA@AEBV01@@Z
	??0bad_array_new_length@std@@QEAA@XZ
	??0condition_variable@std@@QEAA@XZ
	??0exception@std@@QEAA@AEBV01@@Z
	??0exception@std@@QEAA@QEBD@Z
	??0exception@std@@QEAA@QEBDH@Z
	??0exception@std@@QEAA@XZ
	??0invalid_argument@std@@QEAA@AEBV01@@Z
	??0invalid_argument@std@@QEAA@PEBD@Z
	??0logic_error@std@@QEAA@AEBV01@@Z
	??0logic_error@std@@QEAA@PEBD@Z
	??0mutex@std@@QEAA@XZ
	??0reference@?$bitset@$01@std@@AEAA@AEAV12@_K@Z
	??0reference@?$bitset@$03@std@@AEAA@AEAV12@_K@Z
	??0runtime_error@std@@QEAA@AEBV01@@Z
	??0runtime_error@std@@QEAA@AEBV?$basic_string@DU?$char_traits@D@std@@V?$allocator@D@2@@1@@Z
	??0runtime_error@std@@QEAA@PEBD@Z
	??0sentry@?$basic_ostream@DU?$char_traits@D@std@@@std@@QEAA@AEAV12@@Z
	??1<lambda_fe68efc729bc7c1d7a5ab8f29f62bec5>@@QEAA@XZ
	??1?$DataConverter@G@Avian@Infineon@@UEAA@XZ
	??1?$IFrameListener@VIFrame@@@@UEAA@XZ
	??1?$IPort@E@HW@Avian@Infineon@@UEAA@XZ
	??1?$IReadPort@E@HW@Avian@Infineon@@UEAA@XZ
	??1?$IReadPort@G@HW@Avian@Infineon@@UEAA@XZ
	??1?$StrataControlPortImpl@V?$IPort@E@HW@Avian@Infineon@@@Internal@Avian@Infineon@@UEAA@XZ
	??1?$StrataControlPortImpl@VIControlPort@HW@Avian@Infineon@@@Internal@Avian@Infineon@@UEAA@XZ
	??1?$_Alloc_construct_ptr@V?$allocator@U?$_List_node@UTimer@ModelBGT60TRxxC@TimingModel@Avian@Infineon@@PEAX@std@@@std@@@std@@QEAA@XZ
	??1?$_Alloc_construct_ptr@V?$allocator@U?$_Tree_node@U?$pair@$$CBEI@std@@PEAX@std@@@std@@@std@@QEAA@XZ
	??1?$_Alloc_construct_ptr@V?$allocator@U?$_Tree_node@U?$pair@$$CBEURegister_Modification@Driver@Avian@Infineon@@@std@@PEAX@std@@@std@@@std@@QEAA@XZ
	??1?$_Alloc_construct_ptr@V?$allocator@U?$_Tree_node@U?$pair@$$CBIV?$vector@MV?$allocator@M@std@@@std@@@std@@PEAX@std@@@std@@@std@@QEAA@XZ
	??1?$_Alloc_construct_ptr@V?$allocator@U?$_Tree_node@U?$pair@$$CBV?$basic_string@DU?$char_traits@D@std@@V?$allocator@D@2@@std@@UAddress@?$NamedMemory@GI@@@std@@PEAX@std@@@std@@@std@@QEAA@XZ
	??1?$_Compressed_pair@V?$allocator@D@std@@V?$_String_val@U?$_Simple_types@D@std@@@2@$00@std@@QEAA@XZ
	??1?$_Container_proxy_ptr12@V?$allocator@U_Container_proxy@std@@@std@@@std@@QEAA@XZ
	??1?$_Func_class@XAEAV?$list@UTimer@ModelBGT60TRxxC@TimingModel@Avian@Infineon@@V?$allocator@UTimer@ModelBGT60TRxxC@TimingModel@Avian@Infineon@@@std@@@std@@@std@@QEAA@XZ
	??1?$_Func_class@XI@std@@QEAA@XZ
	??1?$_Func_class@XPEAVStrataPort@Avian@Infineon@@I@std@@QEAA@XZ
	??1?$_Func_impl_no_alloc@V<lambda_fe68efc729bc7c1d7a5ab8f29f62bec5>@@XI@std@@QEAA@XZ
	??1?$_List_const_iterator@V?$_List_val@U?$_List_simple_types@UTimer@ModelBGT60TRxxC@TimingModel@Avian@Infineon@@@std@@@std@@@std@@QEAA@XZ
	??1?$_List_iterator@V?$_List_val@U?$_List_simple_types@UTimer@ModelBGT60TRxxC@TimingModel@Avian@Infineon@@@std@@@std@@@std@@QEAA@XZ
	??1?$_List_node_emplace_op2@V?$allocator@U?$_List_node@UTimer@ModelBGT60TRxxC@TimingModel@Avian@Infineon@@PEAX@std@@@std@@@std@@QEAA@XZ
	??1?$_List_unchecked_const_iterator@V?$_List_val@U?$_List_simple_types@UTimer@ModelBGT60TRxxC@TimingModel@Avian@Infineon@@@std@@@std@@U_Iterator_base12@2@@std@@QEAA@XZ
	??1?$_String_val@U?$_Simple_types@D@std@@@std@@QEAA@XZ
	??1?$_Tidy_guard@V?$vector@GV?$allocator@G@std@@@std@@@std@@QEAA@XZ
	??1?$_Tidy_guard@V?$vector@IV?$allocator@I@std@@@std@@@std@@QEAA@XZ
	??1?$_Tidy_guard@V?$vector@MV?$allocator@M@std@@@std@@@std@@QEAA@XZ
	??1?$_Tree@V?$_Tmap_traits@EIU?$less@E@std@@V?$allocator@U?$pair@$$CBEI@std@@@2@$0A@@std@@@std@@QEAA@XZ
	??1?$_Tree@V?$_Tmap_traits@EURegister_Modification@Driver@Avian@Infineon@@U?$less@E@std@@V?$allocator@U?$pair@$$CBEURegister_Modification@Driver@Avian@Infineon@@@std@@@6@$0A@@std@@@std@@QEAA@XZ
	??1?$_Tree@V?$_Tmap_traits@IV?$vector@MV?$allocator@M@std@@@std@@U?$less@I@2@V?$allocator@U?$pair@$$CBIV?$vector@MV?$allocator@M@std@@@std@@@std@@@2@$0A@@std@@@std@@QEAA@XZ
	??1?$_Tree@V?$_Tmap_traits@V?$basic_string@DU?$char_traits@D@std@@V?$allocator@D@2@@std@@UAddress@?$NamedMemory@GI@@U?$less@V?$basic_string@DU?$char_traits@D@std@@V?$allocator@D@2@@std@@@2@V?$allocator@U?$pair@$$CBV?$basic_string@DU?$char_traits@D@std@@V?$allocator@D@2@@std@@UAddress@?$NamedMemory@GI@@@std@@@2@$0A@@std@@@std@@QEAA@XZ
	??1?$_Tree_const_iterator@V?$_Tree_val@U?$_Tree_simple_types@U?$pair@$$CBEI@std@@@std@@@std@@@std@@QEAA@XZ
	??1?$_Tree_const_iterator@V?$_Tree_val@U?$_Tree_simple_types@U?$pair@$$CBIV?$vector@MV?$allocator@M@std@@@std@@@std@@@std@@@std@@@std@@QEAA@XZ
	??1?$_Tree_head_scoped_ptr@V?$allocator@U?$_Tree_node@U?$pair@$$CBEI@std@@PEAX@std@@@std@@V?$_Tree_val@U?$_Tree_simple_types@U?$pair@$$CBEI@std@@@std@@@2@@std@@QEAA@XZ
	??1?$_Tree_head_scoped_ptr@V?$allocator@U?$_Tree_node@U?$pair@$$CBV?$basic_string@DU?$char_traits@D@std@@V?$allocator@D@2@@std@@UAddress@?$NamedMemory@GI@@@std@@PEAX@std@@@std@@V?$_Tree_val@U?$_Tree_simple_types@U?$pair@$$CBV?$basic_string@DU?$char_traits@D@std@@V?$allocator@D@2@@std@@UAddress@?$NamedMemory@GI@@@std@@@std@@@2@@std@@QEAA@XZ
	??1?$_Tree_iterator@V?$_Tree_val@U?$_Tree_simple_types@U?$pair@$$CBEI@std@@@std@@@std@@@std@@QEAA@XZ
	??1?$_Tree_iterator@V?$_Tree_val@U?$_Tree_simple_types@U?$pair@$$CBIV?$vector@MV?$allocator@M@std@@@std@@@std@@@std@@@std@@@std@@QEAA@XZ
	??1?$_Tree_temp_node@V?$allocator@U?$_Tree_node@U?$pair@$$CBEI@std@@PEAX@std@@@std@@@std@@QEAA@XZ
	??1?$_Tree_temp_node@V?$allocator@U?$_Tree_node@U?$pair@$$CBEURegister_Modification@Driver@Avian@Infineon@@@std@@PEAX@std@@@std@@@std@@QEAA@XZ
	??1?$_Tree_temp_node@V?$allocator@U?$_Tree_node@U?$pair@$$CBIV?$vector@MV?$allocator@M@std@@@std@@@std@@PEAX@std@@@std@@@std@@QEAA@XZ
	??1?$_Tree_temp_node@V?$allocator@U?$_Tree_node@U?$pair@$$CBV?$basic_string@DU?$char_traits@D@std@@V?$allocator@D@2@@std@@UAddress@?$NamedMemory@GI@@@std@@PEAX@std@@@std@@@std@@QEAA@XZ
	??1?$_Tree_temp_node_alloc@V?$allocator@U?$_Tree_node@U?$pair@$$CBEI@std@@PEAX@std@@@std@@@std@@QEAA@XZ
	??1?$_Tree_temp_node_alloc@V?$allocator@U?$_Tree_node@U?$pair@$$CBEURegister_Modification@Driver@Avian@Infineon@@@std@@PEAX@std@@@std@@@std@@QEAA@XZ
	??1?$_Tree_temp_node_alloc@V?$allocator@U?$_Tree_node@U?$pair@$$CBIV?$vector@MV?$allocator@M@std@@@std@@@std@@PEAX@std@@@std@@@std@@QEAA@XZ
	??1?$_Tree_temp_node_alloc@V?$allocator@U?$_Tree_node@U?$pair@$$CBV?$basic_string@DU?$char_traits@D@std@@V?$allocator@D@2@@std@@UAddress@?$NamedMemory@GI@@@std@@PEAX@std@@@std@@@std@@QEAA@XZ
	??1?$_Tree_unchecked_const_iterator@V?$_Tree_val@U?$_Tree_simple_types@U?$pair@$$CBEI@std@@@std@@@std@@U_Iterator_base12@2@@std@@QEAA@XZ
	??1?$_Tree_unchecked_const_iterator@V?$_Tree_val@U?$_Tree_simple_types@U?$pair@$$CBIV?$vector@MV?$allocator@M@std@@@std@@@std@@@std@@@std@@U_Iterator_base12@2@@std@@QEAA@XZ
	??1?$_Uninitialized_backout_al@V?$allocator@G@std@@@std@@QEAA@XZ
	??1?$_Uninitialized_backout_al@V?$allocator@I@std@@@std@@QEAA@XZ
	??1?$_Uninitialized_backout_al@V?$allocator@M@std@@@std@@QEAA@XZ
	??1?$_Uninitialized_backout_al@V?$allocator@UStateInfo@StateSequence@TimingModel@Avian@Infineon@@@std@@@std@@QEAA@XZ
	??1?$_Vector_const_iterator@V?$_Vector_val@U?$_Simple_types@I@std@@@std@@@std@@QEAA@XZ
	??1?$_Vector_const_iterator@V?$_Vector_val@U?$_Simple_types@UStateInfo@StateSequence@TimingModel@Avian@Infineon@@@std@@@std@@@std@@QEAA@XZ
	??1?$_Vector_iterator@V?$_Vector_val@U?$_Simple_types@I@std@@@std@@@std@@QEAA@XZ
	??1?$_Vector_iterator@V?$_Vector_val@U?$_Simple_types@UStateInfo@StateSequence@TimingModel@Avian@Infineon@@@std@@@std@@@std@@QEAA@XZ
	??1?$basic_ostringstream@DU?$char_traits@D@std@@V?$allocator@D@2@@std@@UEAA@XZ
	??1?$basic_string@DU?$char_traits@D@std@@V?$allocator@D@2@@std@@QEAA@XZ
	??1?$basic_stringbuf@DU?$char_traits@D@std@@V?$allocator@D@2@@std@@UEAA@XZ
	??1?$basic_stringstream@DU?$char_traits@D@std@@V?$allocator@D@2@@std@@UEAA@XZ
	??1?$function@$$A6AXAEAV?$list@UTimer@ModelBGT60TRxxC@TimingModel@Avian@Infineon@@V?$allocator@UTimer@ModelBGT60TRxxC@TimingModel@Avian@Infineon@@@std@@@std@@@Z@std@@QEAA@XZ
	??1?$function@$$A6AXI@Z@std@@QEAA@XZ
	??1?$function@$$A6AXPEAVStrataPort@Avian@Infineon@@I@Z@std@@QEAA@XZ
	??1?$list@UTimer@ModelBGT60TRxxC@TimingModel@Avian@Infineon@@V?$allocator@UTimer@ModelBGT60TRxxC@TimingModel@Avian@Infineon@@@std@@@std@@QEAA@XZ
	??1?$lock_guard@Vmutex@std@@@std@@QEAA@XZ
	??1?$map@EIU?$less@E@std@@V?$allocator@U?$pair@$$CBEI@std@@@2@@std@@QEAA@XZ
	??1?$map@EURegister_Modification@Driver@Avian@Infineon@@U?$less@E@std@@V?$allocator@U?$pair@$$CBEURegister_Modification@Driver@Avian@Infineon@@@std@@@6@@std@@QEAA@XZ
	??1?$map@IV?$vector@MV?$allocator@M@std@@@std@@U?$less@I@2@V?$allocator@U?$pair@$$CBIV?$vector@MV?$allocator@M@std@@@std@@@std@@@2@@std@@QEAA@XZ
	??1?$map@V?$basic_string@DU?$char_traits@D@std@@V?$allocator@D@2@@std@@UAddress@?$NamedMemory@GI@@U?$less@V?$basic_string@DU?$char_traits@D@std@@V?$allocator@D@2@@std@@@2@V?$allocator@U?$pair@$$CBV?$basic_string@DU?$char_traits@D@std@@V?$allocator@D@2@@std@@UAddress@?$NamedMemory@GI@@@std@@@2@@std@@QEAA@XZ
	??1?$pair@$$CBIV?$vector@MV?$allocator@M@std@@@std@@@std@@QEAA@XZ
	??1?$pair@$$CBV?$basic_string@DU?$char_traits@D@std@@V?$allocator@D@2@@std@@UAddress@?$NamedMemory@GI@@@std@@QEAA@XZ
	??1?$pair@V?$_Tree_iterator@V?$_Tree_val@U?$_Tree_simple_types@U?$pair@$$CBEI@std@@@std@@@std@@@std@@_N@std@@QEAA@XZ
	??1?$pair@V?$_Tree_iterator@V?$_Tree_val@U?$_Tree_simple_types@U?$pair@$$CBIV?$vector@MV?$allocator@M@std@@@std@@@std@@@std@@@std@@@std@@_N@std@@QEAA@XZ
	??1?$shared_ptr@VIBridge@@@std@@QEAA@XZ
	??1?$unique_lock@Vmutex@std@@@std@@QEAA@XZ
	??1?$unique_ptr@VDriver@Avian@Infineon@@U?$default_delete@VDriver@Avian@Infineon@@@std@@@std@@QEAA@XZ
	??1?$unique_ptr@VModelBGT60TR11D@TimingModel@Avian@Infineon@@U?$default_delete@VModelBGT60TR11D@TimingModel@Avian@Infineon@@@std@@@std@@QEAA@XZ
	??1?$unique_ptr@VModelBGT60TRxxC@TimingModel@Avian@Infineon@@U?$default_delete@VModelBGT60TRxxC@TimingModel@Avian@Infineon@@@std@@@std@@QEAA@XZ
	??1?$unique_ptr@VModelBGT60TRxxD@TimingModel@Avian@Infineon@@U?$default_delete@VModelBGT60TRxxD@TimingModel@Avian@Infineon@@@std@@@std@@QEAA@XZ
	??1?$unique_ptr@VSequenceParameters11D@TimingModel@Avian@Infineon@@U?$default_delete@VSequenceParameters11D@TimingModel@Avian@Infineon@@@std@@@std@@QEAA@XZ
	??1?$unique_ptr@VSequenceParameters@TimingModel@Avian@Infineon@@U?$default_delete@VSequenceParameters@TimingModel@Avian@Infineon@@@std@@@std@@QEAA@XZ
	??1?$unique_ptr@VSequenceParametersD@TimingModel@Avian@Infineon@@U?$default_delete@VSequenceParametersD@TimingModel@Avian@Infineon@@@std@@@std@@QEAA@XZ
	??1?$vector@GV?$allocator@G@std@@@std@@QEAA@XZ
	??1?$vector@IV?$allocator@I@std@@@std@@QEAA@XZ
	??1?$vector@MV?$allocator@M@std@@@std@@QEAA@XZ
	??1?$vector@UStateInfo@StateSequence@TimingModel@Avian@Infineon@@V?$allocator@UStateInfo@StateSequence@TimingModel@Avian@Infineon@@@std@@@std@@QEAA@XZ
	??1Continuous_Wave_Controller@Avian@Infineon@@QEAA@XZ
	??1DataSettingsBgtRadar_t@@QEAA@XZ
	??1Driver@Avian@Infineon@@QEAA@XZ
	??1DriverError@Avian@Infineon@@UEAA@XZ
	??1DummyPort@Avian@Infineon@@UEAA@XZ
	??1EConnection@@UEAA@XZ
	??1EException@@UEAA@XZ
	??1EGenericException@@UEAA@XZ
	??1ENarrowCast@@UEAA@XZ
	??1EProtocolFunction@@UEAA@XZ
	??1Error@Parameter_Extractor@Avian@Infineon@@UEAA@XZ
	??1IControlPort@HW@Avian@Infineon@@UEAA@XZ
	??1ModelBGT60TR11D@TimingModel@Avian@Infineon@@UEAA@XZ
	??1ModelBGT60TRxxC@TimingModel@Avian@Infineon@@UEAA@XZ
	??1ModelBGT60TRxxD@TimingModel@Avian@Infineon@@UEAA@XZ
	??1RegisterSet@HW@Avian@Infineon@@QEAA@XZ
	??1SequenceParameters11D@TimingModel@Avian@Infineon@@UEAA@XZ
	??1SequenceParameters@TimingModel@Avian@Infineon@@UEAA@XZ
	??1SequenceParametersD@TimingModel@Avian@Infineon@@UEAA@XZ
	??1ShapeGroup@StateSequence@TimingModel@Avian@Infineon@@QEAA@XZ
	??1StateInfo@StateSequence@TimingModel@Avian@Infineon@@QEAA@XZ
	??1StateList@StateSequence@TimingModel@Avian@Infineon@@QEAA@XZ
	??1StrataPort@Avian@Infineon@@UEAA@XZ
	??1Timer@ModelBGT60TRxxC@TimingModel@Avian@Infineon@@QEAA@XZ
	??1_Bxty@?$_String_val@U?$_Simple_types@D@std@@@std@@QEAA@XZ
	??1_Guard_type@?1???$_Global_new@V?$_Func_impl_no_alloc@V<lambda_fe68efc729bc7c1d7a5ab8f29f62bec5>@@XI@std@@AEAV<lambda_fe68efc729bc7c1d7a5ab8f29f62bec5>@@@std@@YAPEAV?$_Func_impl_no_alloc@V<lambda_fe68efc729bc7c1d7a5ab8f29f62bec5>@@XI@1@AEAV<lambda_fe68efc729bc7c1d7a5ab8f29f62bec5>@@@Z@QEAA@XZ
	??1_Guard_type@?1???$_Global_new@V?$_Func_impl_no_alloc@V<lambda_fe68efc729bc7c1d7a5ab8f29f62bec5>@@XI@std@@AEBV<lambda_fe68efc729bc7c1d7a5ab8f29f62bec5>@@@std@@YAPEAV?$_Func_impl_no_alloc@V<lambda_fe68efc729bc7c1d7a5ab8f29f62bec5>@@XI@1@AEBV<lambda_fe68efc729bc7c1d7a5ab8f29f62bec5>@@@Z@QEAA@XZ
	??1_Iterator_base12@std@@QEAA@XZ
	??1_Mutex_base@std@@QEAA@XZ
	??1_Sentry_base@?$basic_ostream@DU?$char_traits@D@std@@@std@@QEAA@XZ
	??1bad_alloc@std@@UEAA@XZ
	??1bad_array_new_length@std@@UEAA@XZ
	??1condition_variable@std@@QEAA@XZ
	??1exception@std@@UEAA@XZ
	??1invalid_argument@std@@UEAA@XZ
	??1logic_error@std@@UEAA@XZ
	??1mutex@std@@QEAA@XZ
	??1reference@?$bitset@$01@std@@QEAA@XZ
	??1reference@?$bitset@$03@std@@QEAA@XZ
	??1runtime_error@std@@UEAA@XZ
	??1sentry@?$basic_ostream@DU?$char_traits@D@std@@@std@@QEAA@XZ
	??2@YAPEAX_KPEAX@Z
	??4?$_Tree@V?$_Tmap_traits@EIU?$less@E@std@@V?$allocator@U?$pair@$$CBEI@std@@@2@$0A@@std@@@std@@QEAAAEAV01@AEBV01@@Z
	??4?$_Tree@V?$_Tmap_traits@EURegister_Modification@Driver@Avian@Infineon@@U?$less@E@std@@V?$allocator@U?$pair@$$CBEURegister_Modification@Driver@Avian@Infineon@@@std@@@6@$0A@@std@@@std@@QEAAAEAV01@AEBV01@@Z
	??4?$basic_string@DU?$char_traits@D@std@@V?$allocator@D@2@@std@@QEAAAEAV01@$$QEAV01@@Z
	??4?$basic_string@DU?$char_traits@D@std@@V?$allocator@D@2@@std@@QEAAAEAV01@AEBV01@@Z
	??4?$basic_string@DU?$char_traits@D@std@@V?$allocator@D@2@@std@@QEAAAEAV01@QEBD@Z
	??4?$function@$$A6AXI@Z@std@@QEAAAEAV01@$$T@Z
	??4?$function@$$A6AXI@Z@std@@QEAAAEAV01@AEBV01@@Z
	??4?$function@$$A6AXPEAVStrataPort@Avian@Infineon@@I@Z@std@@QEAAAEAV01@AEBV01@@Z
	??4?$map@EIU?$less@E@std@@V?$allocator@U?$pair@$$CBEI@std@@@2@@std@@QEAAAEAV01@AEBV01@@Z
	??4?$map@EURegister_Modification@Driver@Avian@Infineon@@U?$less@E@std@@V?$allocator@U?$pair@$$CBEURegister_Modification@Driver@Avian@Infineon@@@std@@@6@@std@@QEAAAEAV01@AEBV01@@Z
	??4Driver@Avian@Infineon@@QEAAAEBV012@AEBV012@@Z
	??4RegisterSet@HW@Avian@Infineon@@QEAAAEAV0123@AEBV0123@@Z
	??4_Iterator_base12@std@@QEAAAEAU01@AEBU01@@Z
	??4reference@?$bitset@$01@std@@QEAAAEAV012@_N@Z
	??4reference@?$bitset@$03@std@@QEAAAEAV012@_N@Z
	??8?$_Array_const_iterator@E$0BIA@@std@@QEBA_NAEBV01@@Z
	??8?$_List_const_iterator@V?$_List_val@U?$_List_simple_types@UTimer@ModelBGT60TRxxC@TimingModel@Avian@Infineon@@@std@@@std@@@std@@QEBA_NAEBV01@@Z
	??8?$_List_unchecked_const_iterator@V?$_List_val@U?$_List_simple_types@UTimer@ModelBGT60TRxxC@TimingModel@Avian@Infineon@@@std@@@std@@U_Iterator_base0@2@@std@@QEBA_NAEBV01@@Z
	??8?$_Tree_const_iterator@V?$_Tree_val@U?$_Tree_simple_types@U?$pair@$$CBEI@std@@@std@@@std@@@std@@QEBA_NAEBV01@@Z
	??8?$_Vector_const_iterator@V?$_Vector_val@U?$_Simple_types@UStateInfo@StateSequence@TimingModel@Avian@Infineon@@@std@@@std@@@std@@QEBA_NAEBV01@@Z
	??8?$bitset@$03@std@@QEBA_NAEBV01@@Z
	??9?$_Array_const_iterator@E$0BIA@@std@@QEBA_NAEBV01@@Z
	??9?$_List_const_iterator@V?$_List_val@U?$_List_simple_types@UTimer@ModelBGT60TRxxC@TimingModel@Avian@Infineon@@@std@@@std@@@std@@QEBA_NAEBV01@@Z
	??9?$_List_unchecked_const_iterator@V?$_List_val@U?$_List_simple_types@UTimer@ModelBGT60TRxxC@TimingModel@Avian@Infineon@@@std@@@std@@U_Iterator_base0@2@@std@@QEBA_NAEBV01@@Z
	??9?$_Tree_const_iterator@V?$_Tree_val@U?$_Tree_simple_types@U?$pair@$$CBEI@std@@@std@@@std@@@std@@QEBA_NAEBV01@@Z
	??9?$_Tree_unchecked_const_iterator@V?$_Tree_val@U?$_Tree_simple_types@U?$pair@$$CBEI@std@@@std@@@std@@U_Iterator_base0@2@@std@@QEBA_NU_Default_sentinel@1@@Z
	??9?$_Tree_unchecked_const_iterator@V?$_Tree_val@U?$_Tree_simple_types@U?$pair@$$CBEURegister_Modification@Driver@Avian@Infineon@@@std@@@std@@@std@@U_Iterator_base0@2@@std@@QEBA_NU_Default_sentinel@1@@Z
	??9?$_Vector_const_iterator@V?$_Vector_val@U?$_Simple_types@UStateInfo@StateSequence@TimingModel@Avian@Infineon@@@std@@@std@@@std@@QEBA_NAEBV01@@Z
	??A?$_Vector_const_iterator@V?$_Vector_val@U?$_Simple_types@UStateInfo@StateSequence@TimingModel@Avian@Infineon@@@std@@@std@@@std@@QEBAAEBUStateInfo@StateSequence@TimingModel@Avian@Infineon@@_J@Z
	??A?$_Vector_iterator@V?$_Vector_val@U?$_Simple_types@UStateInfo@StateSequence@TimingModel@Avian@Infineon@@@std@@@std@@@std@@QEBAAEAUStateInfo@StateSequence@TimingModel@Avian@Infineon@@_J@Z
	??A?$array@H$04@std@@QEBAAEBH_K@Z
	??A?$array@H$06@std@@QEBAAEBH_K@Z
	??A?$array@I$01@std@@QEAAAEAI_K@Z
	??A?$array@I$03@std@@QEAAAEAI_K@Z
	??A?$array@I$07@std@@QEAAAEAI_K@Z
	??A?$array@I$0BG@@std@@QEAAAEAI_K@Z
	??A?$array@U?$pair@EE@std@@$01@std@@QEBAAEBU?$pair@EE@1@_K@Z
	??A?$bitset@$01@std@@QEAA?AVreference@01@_K@Z
	??A?$bitset@$01@std@@QEBA_N_K@Z
	??A?$bitset@$03@std@@QEAA?AVreference@01@_K@Z
	??A?$bitset@$03@std@@QEBA_N_K@Z
	??A?$map@EIU?$less@E@std@@V?$allocator@U?$pair@$$CBEI@std@@@2@@std@@QEAAAEAI$$QEAE@Z
	??A?$map@EIU?$less@E@std@@V?$allocator@U?$pair@$$CBEI@std@@@2@@std@@QEAAAEAIAEBE@Z
	??A?$map@EURegister_Modification@Driver@Avian@Infineon@@U?$less@E@std@@V?$allocator@U?$pair@$$CBEURegister_Modification@Driver@Avian@Infineon@@@std@@@6@@std@@QEAAAEAURegister_Modification@Driver@Avian@Infineon@@AEBE@Z
	??A?$vector@UStateInfo@StateSequence@TimingModel@Avian@Infineon@@V?$allocator@UStateInfo@StateSequence@TimingModel@Avian@Infineon@@@std@@@std@@QEBAAEBUStateInfo@StateSequence@TimingModel@Avian@Infineon@@_K@Z
	??ARegisterSet@HW@Avian@Infineon@@QEBAIE@Z
	??B?$fpos@U_Mbstatet@@@std@@QEBA_JXZ
	??B?$function@$$A6AXAEAV?$list@UTimer@ModelBGT60TRxxC@TimingModel@Avian@Infineon@@V?$allocator@UTimer@ModelBGT60TRxxC@TimingModel@Avian@Infineon@@@std@@@std@@@Z@std@@QEBA_NXZ
	??B?$function@$$A6AXI@Z@std@@QEBA_NXZ
	??B?$function@$$A6AXPEAVStrataPort@Avian@Infineon@@I@Z@std@@QEBA_NXZ
	??B?$unique_ptr@VDriver@Avian@Infineon@@U?$default_delete@VDriver@Avian@Infineon@@@std@@@std@@QEBA_NXZ
	??Breference@?$bitset@$01@std@@QEBA_NXZ
	??Breference@?$bitset@$03@std@@QEBA_NXZ
	??Bsentry@?$basic_ostream@DU?$char_traits@D@std@@@std@@QEBA_NXZ
	??C?$_Array_const_iterator@E$0BIA@@std@@QEBAPEBEXZ
	??C?$_List_iterator@V?$_List_val@U?$_List_simple_types@UTimer@ModelBGT60TRxxC@TimingModel@Avian@Infineon@@@std@@@std@@@std@@QEBAPEAUTimer@ModelBGT60TRxxC@TimingModel@Avian@Infineon@@XZ
	??C?$_Tree_iterator@V?$_Tree_val@U?$_Tree_simple_types@U?$pair@$$CBIV?$vector@MV?$allocator@M@std@@@std@@@std@@@std@@@std@@@std@@QEBAPEAU?$pair@$$CBIV?$vector@MV?$allocator@M@std@@@std@@@1@XZ
	??C?$unique_ptr@VDriver@Avian@Infineon@@U?$default_delete@VDriver@Avian@Infineon@@@std@@@std@@QEBAPEAVDriver@Avian@Infineon@@XZ
	??C?$unique_ptr@VModelBGT60TRxxC@TimingModel@Avian@Infineon@@U?$default_delete@VModelBGT60TRxxC@TimingModel@Avian@Infineon@@@std@@@std@@QEBAPEAVModelBGT60TRxxC@TimingModel@Avian@Infineon@@XZ
	??C?$unique_ptr@VSequenceParameters@TimingModel@Avian@Infineon@@U?$default_delete@VSequenceParameters@TimingModel@Avian@Infineon@@@std@@@std@@QEBAPEAVSequenceParameters@TimingModel@Avian@Infineon@@XZ
	??D?$_Array_const_iterator@E$0BIA@@std@@QEBAAEBEXZ
	??D?$_Array_iterator@E$0BIA@@std@@QEBAAEAEXZ
	??D?$_List_const_iterator@V?$_List_val@U?$_List_simple_types@UTimer@ModelBGT60TRxxC@TimingModel@Avian@Infineon@@@std@@@std@@@std@@QEBAAEBUTimer@ModelBGT60TRxxC@TimingModel@Avian@Infineon@@XZ
	??D?$_List_iterator@V?$_List_val@U?$_List_simple_types@UTimer@ModelBGT60TRxxC@TimingModel@Avian@Infineon@@@std@@@std@@@std@@QEBAAEAUTimer@ModelBGT60TRxxC@TimingModel@Avian@Infineon@@XZ
	??D?$_List_unchecked_const_iterator@V?$_List_val@U?$_List_simple_types@UTimer@ModelBGT60TRxxC@TimingModel@Avian@Infineon@@@std@@@std@@U_Iterator_base0@2@@std@@QEBAAEBUTimer@ModelBGT60TRxxC@TimingModel@Avian@Infineon@@XZ
	??D?$_List_unchecked_iterator@V?$_List_val@U?$_List_simple_types@UTimer@ModelBGT60TRxxC@TimingModel@Avian@Infineon@@@std@@@std@@@std@@QEBAAEAUTimer@ModelBGT60TRxxC@TimingModel@Avian@Infineon@@XZ
	??D?$_Tree_const_iterator@V?$_Tree_val@U?$_Tree_simple_types@U?$pair@$$CBIV?$vector@MV?$allocator@M@std@@@std@@@std@@@std@@@std@@@std@@QEBAAEBU?$pair@$$CBIV?$vector@MV?$allocator@M@std@@@std@@@1@XZ
	??D?$_Tree_iterator@V?$_Tree_val@U?$_Tree_simple_types@U?$pair@$$CBIV?$vector@MV?$allocator@M@std@@@std@@@std@@@std@@@std@@@std@@QEBAAEAU?$pair@$$CBIV?$vector@MV?$allocator@M@std@@@std@@@1@XZ
	??D?$_Tree_unchecked_const_iterator@V?$_Tree_val@U?$_Tree_simple_types@U?$pair@$$CBEI@std@@@std@@@std@@U_Iterator_base0@2@@std@@QEBAAEBU?$pair@$$CBEI@1@XZ
	??D?$_Tree_unchecked_const_iterator@V?$_Tree_val@U?$_Tree_simple_types@U?$pair@$$CBEURegister_Modification@Driver@Avian@Infineon@@@std@@@std@@@std@@U_Iterator_base0@2@@std@@QEBAAEBU?$pair@$$CBEURegister_Modification@Driver@Avian@Infineon@@@1@XZ
	??D?$_Vector_const_iterator@V?$_Vector_val@U?$_Simple_types@I@std@@@std@@@std@@QEBAAEBIXZ
	??D?$_Vector_const_iterator@V?$_Vector_val@U?$_Simple_types@UStateInfo@StateSequence@TimingModel@Avian@Infineon@@@std@@@std@@@std@@QEBAAEBUStateInfo@StateSequence@TimingModel@Avian@Infineon@@XZ
	??D?$_Vector_iterator@V?$_Vector_val@U?$_Simple_types@I@std@@@std@@@std@@QEBAAEAIXZ
	??D?$_Vector_iterator@V?$_Vector_val@U?$_Simple_types@UStateInfo@StateSequence@TimingModel@Avian@Infineon@@@std@@@std@@@std@@QEBAAEAUStateInfo@StateSequence@TimingModel@Avian@Infineon@@XZ
	??D?$unique_ptr@VDriver@Avian@Infineon@@U?$default_delete@VDriver@Avian@Infineon@@@std@@@std@@QEBAAEAVDriver@Avian@Infineon@@XZ
	??D?$unique_ptr@VModelBGT60TRxxC@TimingModel@Avian@Infineon@@U?$default_delete@VModelBGT60TRxxC@TimingModel@Avian@Infineon@@@std@@@std@@QEBAAEAVModelBGT60TRxxC@TimingModel@Avian@Infineon@@XZ
	??D?$unique_ptr@VSequenceParameters11D@TimingModel@Avian@Infineon@@U?$default_delete@VSequenceParameters11D@TimingModel@Avian@Infineon@@@std@@@std@@QEBAAEAVSequenceParameters11D@TimingModel@Avian@Infineon@@XZ
	??D?$unique_ptr@VSequenceParameters@TimingModel@Avian@Infineon@@U?$default_delete@VSequenceParameters@TimingModel@Avian@Infineon@@@std@@@std@@QEBAAEAVSequenceParameters@TimingModel@Avian@Infineon@@XZ
	??D?$unique_ptr@VSequenceParametersD@TimingModel@Avian@Infineon@@U?$default_delete@VSequenceParametersD@TimingModel@Avian@Infineon@@@std@@@std@@QEBAAEAVSequenceParametersD@TimingModel@Avian@Infineon@@XZ
	??E?$_Array_const_iterator@E$0BIA@@std@@QEAAAEAV01@XZ
	??E?$_Array_iterator@E$0BIA@@std@@QEAA?AV01@H@Z
	??E?$_List_const_iterator@V?$_List_val@U?$_List_simple_types@UTimer@ModelBGT60TRxxC@TimingModel@Avian@Infineon@@@std@@@std@@@std@@QEAAAEAV01@XZ
	??E?$_List_iterator@V?$_List_val@U?$_List_simple_types@UTimer@ModelBGT60TRxxC@TimingModel@Avian@Infineon@@@std@@@std@@@std@@QEAA?AV01@H@Z
	??E?$_List_unchecked_const_iterator@V?$_List_val@U?$_List_simple_types@UTimer@ModelBGT60TRxxC@TimingModel@Avian@Infineon@@@std@@@std@@U_Iterator_base0@2@@std@@QEAAAEAV01@XZ
	??E?$_List_unchecked_iterator@V?$_List_val@U?$_List_simple_types@UTimer@ModelBGT60TRxxC@TimingModel@Avian@Infineon@@@std@@@std@@@std@@QEAAAEAV01@XZ
	??E?$_Tree_unchecked_const_iterator@V?$_Tree_val@U?$_Tree_simple_types@U?$pair@$$CBEI@std@@@std@@@std@@U_Iterator_base0@2@@std@@QEAAAEAV01@XZ
	??E?$_Tree_unchecked_const_iterator@V?$_Tree_val@U?$_Tree_simple_types@U?$pair@$$CBEURegister_Modification@Driver@Avian@Infineon@@@std@@@std@@@std@@U_Iterator_base0@2@@std@@QEAAAEAV01@XZ
	??E?$_Tree_unchecked_const_iterator@V?$_Tree_val@U?$_Tree_simple_types@U?$pair@$$CBV?$basic_string@DU?$char_traits@D@std@@V?$allocator@D@2@@std@@UAddress@?$NamedMemory@GI@@@std@@@std@@@std@@U_Iterator_base0@2@@std@@QEAAAEAV01@XZ
	??E?$_Vector_const_iterator@V?$_Vector_val@U?$_Simple_types@I@std@@@std@@@std@@QEAAAEAV01@XZ
	??E?$_Vector_const_iterator@V?$_Vector_val@U?$_Simple_types@UStateInfo@StateSequence@TimingModel@Avian@Infineon@@@std@@@std@@@std@@QEAAAEAV01@XZ
	??E?$_Vector_iterator@V?$_Vector_val@U?$_Simple_types@I@std@@@std@@@std@@QEAA?AV01@H@Z
	??E?$_Vector_iterator@V?$_Vector_val@U?$_Simple_types@UStateInfo@StateSequence@TimingModel@Avian@Infineon@@@std@@@std@@@std@@QEAAAEAV01@XZ
	??EIterator@StateSequence@TimingModel@Avian@Infineon@@QEAAXXZ
	??F?$_Tree_unchecked_const_iterator@V?$_Tree_val@U?$_Tree_simple_types@U?$pair@$$CBV?$basic_string@DU?$char_traits@D@std@@V?$allocator@D@2@@std@@UAddress@?$NamedMemory@GI@@@std@@@std@@@std@@U_Iterator_base0@2@@std@@QEAAAEAV01@XZ
	??H?$_Vector_const_iterator@V?$_Vector_val@U?$_Simple_types@UStateInfo@StateSequence@TimingModel@Avian@Infineon@@@std@@@std@@@std@@QEBA?AV01@_J@Z
	??M?$_Array_const_iterator@I$01@std@@QEBA_NAEBV01@@Z
	??M?$_Vector_const_iterator@V?$_Vector_val@U?$_Simple_types@I@std@@@std@@@std@@QEBA_NAEBV01@@Z
	??N?$_Array_const_iterator@I$01@std@@QEBA_NAEBV01@@Z
	??R<lambda_0991b17b33eea9784d4fe7a8baf00fb9>@@QEBA@K@Z
	??R<lambda_4be758431e80ab3b1d2f91de89034a0f>@@QEBA@K@Z
	??R<lambda_63564f6e8c4be3b5f3bf30b8ca975984>@@QEBA@K@Z
	??R<lambda_65e615be2a453ca0576c979606f46740>@@QEBA@QEADQEBD_K12@Z
	??R<lambda_66f57f934f28d61049862f64df852ff0>@@QEBA@QEAD_KQEBD@Z
	??R<lambda_f3a66ab6a0570788f31503db83886f49>@@QEBA@QEADQEBD_K212@Z
	??R<lambda_fe68efc729bc7c1d7a5ab8f29f62bec5>@@QEBA@I@Z
	??R?$_Func_class@XAEAV?$list@UTimer@ModelBGT60TRxxC@TimingModel@Avian@Infineon@@V?$allocator@UTimer@ModelBGT60TRxxC@TimingModel@Avian@Infineon@@@std@@@std@@@std@@QEBAXAEAV?$list@UTimer@ModelBGT60TRxxC@TimingModel@Avian@Infineon@@V?$allocator@UTimer@ModelBGT60TRxxC@TimingModel@Avian@Infineon@@@std@@@1@@Z
	??R?$_Func_class@XI@std@@QEBAXI@Z
	??R?$_Func_class@XPEAVStrataPort@Avian@Infineon@@I@std@@QEBAXPEAVStrataPort@Avian@Infineon@@I@Z
	??R?$default_delete@VDriver@Avian@Infineon@@@std@@QEBAXPEAVDriver@Avian@Infineon@@@Z
	??R?$default_delete@VModelBGT60TR11D@TimingModel@Avian@Infineon@@@std@@QEBAXPEAVModelBGT60TR11D@TimingModel@Avian@Infineon@@@Z
	??R?$default_delete@VModelBGT60TRxxC@TimingModel@Avian@Infineon@@@std@@QEBAXPEAVModelBGT60TRxxC@TimingModel@Avian@Infineon@@@Z
	??R?$default_delete@VModelBGT60TRxxD@TimingModel@Avian@Infineon@@@std@@QEBAXPEAVModelBGT60TRxxD@TimingModel@Avian@Infineon@@@Z
	??R?$default_delete@VSequenceParameters11D@TimingModel@Avian@Infineon@@@std@@QEBAXPEAVSequenceParameters11D@TimingModel@Avian@Infineon@@@Z
	??R?$default_delete@VSequenceParameters@TimingModel@Avian@Infineon@@@std@@QEBAXPEAVSequenceParameters@TimingModel@Avian@Infineon@@@Z
	??R?$default_delete@VSequenceParametersD@TimingModel@Avian@Infineon@@@std@@QEBAXPEAVSequenceParametersD@TimingModel@Avian@Infineon@@@Z
	??R?$less@E@std@@QEBA_NAEBE0@Z
	??R?$less@I@std@@QEBA_NAEBI0@Z
	??R?$less@V?$basic_string@DU?$char_traits@D@std@@V?$allocator@D@2@@std@@@std@@QEBA_NAEBV?$basic_string@DU?$char_traits@D@std@@V?$allocator@D@2@@1@0@Z
	??Y?$_Vector_const_iterator@V?$_Vector_val@U?$_Simple_types@UStateInfo@StateSequence@TimingModel@Avian@Infineon@@@std@@@std@@@std@@QEAAAEAV01@_J@Z
	??Y?$basic_string@DU?$char_traits@D@std@@V?$allocator@D@2@@std@@QEAAAEAV01@AEBV01@@Z
	??Y?$basic_string@DU?$char_traits@D@std@@V?$allocator@D@2@@std@@QEAAAEAV01@QEBD@Z
	??Y?$duration@_JU?$ratio@$00$0DLJKMKAA@@std@@@chrono@std@@QEAAAEAV012@AEBV012@@Z
	??Y?$time_point@Usteady_clock@chrono@std@@V?$duration@_JU?$ratio@$00$0DLJKMKAA@@std@@@23@@chrono@std@@QEAAAEAV012@AEBV?$duration@_JU?$ratio@$00$0DLJKMKAA@@std@@@12@@Z
	??Z?$duration@_JU?$ratio@$00$0DLJKMKAA@@std@@@chrono@std@@QEAAAEAV012@AEBV012@@Z
	??_7?$DataConverter@G@Avian@Infineon@@6B@
	??_7?$IFrameListener@VIFrame@@@@6B@
	??_7?$IPort@E@HW@Avian@Infineon@@6B?$IReadPort@E@123@@
	??_7?$IPort@E@HW@Avian@Infineon@@6BIControlPort@123@@
	??_7?$IReadPort@E@HW@Avian@Infineon@@6B@
	??_7?$IReadPort@G@HW@Avian@Infineon@@6B@
	??_7?$StrataControlPortImpl@V?$IPort@E@HW@Avian@Infineon@@@Internal@Avian@Infineon@@6B?$IReadPort@E@HW@23@@
	??_7?$StrataControlPortImpl@V?$IPort@E@HW@Avian@Infineon@@@Internal@Avian@Infineon@@6BIControlPort@HW@23@@
	??_7?$StrataControlPortImpl@VIControlPort@HW@Avian@Infineon@@@Internal@Avian@Infineon@@6B@
	??_7?$_Func_impl_no_alloc@V<lambda_fe68efc729bc7c1d7a5ab8f29f62bec5>@@XI@std@@6B@
	??_7?$basic_ostringstream@DU?$char_traits@D@std@@V?$allocator@D@2@@std@@6B@
	??_7?$basic_stringbuf@DU?$char_traits@D@std@@V?$allocator@D@2@@std@@6B@
	??_7?$basic_stringstream@DU?$char_traits@D@std@@V?$allocator@D@2@@std@@6B@
	??_7DriverError@Avian@Infineon@@6B@
	??_7DummyPort@Avian@Infineon@@6B@
	??_7EConnection@@6B@
	??_7EException@@6B@
	??_7EGenericException@@6B@
	??_7ENarrowCast@@6B@
	??_7EProtocolFunction@@6B@
	??_7Error@Parameter_Extractor@Avian@Infineon@@6B@
	??_7IControlPort@HW@Avian@Infineon@@6B@
	??_7ModelBGT60TR11D@TimingModel@Avian@Infineon@@6B@
	??_7ModelBGT60TRxxC@TimingModel@Avian@Infineon@@6B@
	??_7ModelBGT60TRxxD@TimingModel@Avian@Infineon@@6B@
	??_7SequenceParameters11D@TimingModel@Avian@Infineon@@6B@
	??_7SequenceParameters@TimingModel@Avian@Infineon@@6B@
	??_7SequenceParametersD@TimingModel@Avian@Infineon@@6B@
	??_7StrataPort@Avian@Infineon@@6B?$IReadPort@E@HW@12@@
	??_7StrataPort@Avian@Infineon@@6B@
	??_7StrataPort@Avian@Infineon@@6BIControlPort@HW@12@@
	??_7bad_alloc@std@@6B@
	??_7bad_array_new_length@std@@6B@
	??_7exception@std@@6B@
	??_7invalid_argument@std@@6B@
	??_7logic_error@std@@6B@
	??_7runtime_error@std@@6B@
	??_D?$basic_ostringstream@DU?$char_traits@D@std@@V?$allocator@D@2@@std@@QEAAXXZ
	??_D?$basic_stringstream@DU?$char_traits@D@std@@V?$allocator@D@2@@std@@QEAAXXZ
	??_H@YAXPEAX_K1P6APEAX0@Z@Z
	?_Activate_SSO_buffer@?$_String_val@U?$_Simple_types@D@std@@@std@@QEAAXXZ
	?_Adjust_manually_vector_aligned@std@@YAXAEAPEAXAEA_K@Z
	?_Adopt@_Iterator_base0@std@@QEAAXPEBX@Z
	?_Adopt@_Iterator_base12@std@@QEAAXPEBU_Container_base12@2@@Z
	?_Adopt_all@?$_List_val@U?$_List_simple_types@UTimer@ModelBGT60TRxxC@TimingModel@Avian@Infineon@@@std@@@std@@QEAAXAEAV12@@Z
	?_Adopt_locked@_Iterator_base12@std@@AEAAXPEBU_Container_base12@2@@Z
	?_Adopt_range@?$_List_val@U?$_List_simple_types@UTimer@ModelBGT60TRxxC@TimingModel@Avian@Infineon@@@std@@@std@@QEAAXAEAV12@QEAU?$_List_node@UTimer@ModelBGT60TRxxC@TimingModel@Avian@Infineon@@PEAX@2@1@Z
	?_Adopt_unique@?$_List_val@U?$_List_simple_types@UTimer@ModelBGT60TRxxC@TimingModel@Avian@Infineon@@@std@@@std@@QEAAXAEAV12@PEAU?$_List_node@UTimer@ModelBGT60TRxxC@TimingModel@Avian@Infineon@@PEAX@2@@Z
	?_Adopt_unlocked@_Iterator_base12@std@@AEAAXPEBU_Container_base12@2@@Z
	?_Alloc_sentinel_and_proxy@?$_Tree@V?$_Tmap_traits@EIU?$less@E@std@@V?$allocator@U?$pair@$$CBEI@std@@@2@$0A@@std@@@std@@IEAAXXZ
	?_Alloc_sentinel_and_proxy@?$_Tree@V?$_Tmap_traits@EURegister_Modification@Driver@Avian@Infineon@@U?$less@E@std@@V?$allocator@U?$pair@$$CBEURegister_Modification@Driver@Avian@Infineon@@@std@@@6@$0A@@std@@@std@@IEAAXXZ
	?_Alloc_sentinel_and_proxy@?$_Tree@V?$_Tmap_traits@IV?$vector@MV?$allocator@M@std@@@std@@U?$less@I@2@V?$allocator@U?$pair@$$CBIV?$vector@MV?$allocator@M@std@@@std@@@std@@@2@$0A@@std@@@std@@IEAAXXZ
	?_Alloc_sentinel_and_proxy@?$_Tree@V?$_Tmap_traits@V?$basic_string@DU?$char_traits@D@std@@V?$allocator@D@2@@std@@UAddress@?$NamedMemory@GI@@U?$less@V?$basic_string@DU?$char_traits@D@std@@V?$allocator@D@2@@std@@@2@V?$allocator@U?$pair@$$CBV?$basic_string@DU?$char_traits@D@std@@V?$allocator@D@2@@std@@UAddress@?$NamedMemory@GI@@@std@@@2@$0A@@std@@@std@@IEAAXXZ
	?_Alloc_sentinel_and_proxy@?$list@UTimer@ModelBGT60TRxxC@TimingModel@Avian@Infineon@@V?$allocator@UTimer@ModelBGT60TRxxC@TimingModel@Avian@Infineon@@@std@@@std@@AEAAXXZ
	?_Allocate@?$_Alloc_construct_ptr@V?$allocator@U?$_List_node@UTimer@ModelBGT60TRxxC@TimingModel@Avian@Infineon@@PEAX@std@@@std@@@std@@QEAAXXZ
	?_Allocate@?$_Alloc_construct_ptr@V?$allocator@U?$_Tree_node@U?$pair@$$CBEI@std@@PEAX@std@@@std@@@std@@QEAAXXZ
	?_Allocate@?$_Alloc_construct_ptr@V?$allocator@U?$_Tree_node@U?$pair@$$CBEURegister_Modification@Driver@Avian@Infineon@@@std@@PEAX@std@@@std@@@std@@QEAAXXZ
	?_Allocate@?$_Alloc_construct_ptr@V?$allocator@U?$_Tree_node@U?$pair@$$CBIV?$vector@MV?$allocator@M@std@@@std@@@std@@PEAX@std@@@std@@@std@@QEAAXXZ
	?_Allocate@?$_Alloc_construct_ptr@V?$allocator@U?$_Tree_node@U?$pair@$$CBV?$basic_string@DU?$char_traits@D@std@@V?$allocator@D@2@@std@@UAddress@?$NamedMemory@GI@@@std@@PEAX@std@@@std@@@std@@QEAAXXZ
	?_Allocate@_Default_allocate_traits@std@@SAPEAX_K@Z
	?_Assign_locked@_Iterator_base12@std@@AEAAXAEBU12@@Z
	?_Assign_unlocked@_Iterator_base12@std@@AEAAXAEBU12@@Z
	?_Buy_nonzero@?$vector@GV?$allocator@G@std@@@std@@AEAAX_K@Z
	?_Buy_nonzero@?$vector@IV?$allocator@I@std@@@std@@AEAAX_K@Z
	?_Buy_nonzero@?$vector@MV?$allocator@M@std@@@std@@AEAAX_K@Z
	?_Buy_raw@?$vector@GV?$allocator@G@std@@@std@@AEAAX_K@Z
	?_Buy_raw@?$vector@IV?$allocator@I@std@@@std@@AEAAX_K@Z
	?_Buy_raw@?$vector@MV?$allocator@M@std@@@std@@AEAAX_K@Z
	?_Calculate_growth@?$basic_string@DU?$char_traits@D@std@@V?$allocator@D@2@@std@@AEBA_K_K@Z
	?_Calculate_growth@?$basic_string@DU?$char_traits@D@std@@V?$allocator@D@2@@std@@CA_K_K00@Z
	?_Calculate_growth@?$vector@IV?$allocator@I@std@@@std@@AEBA_K_K@Z
	?_Calculate_growth@?$vector@UStateInfo@StateSequence@TimingModel@Avian@Infineon@@V?$allocator@UStateInfo@StateSequence@TimingModel@Avian@Infineon@@@std@@@std@@AEBA_K_K@Z
	?_Change_array@?$vector@IV?$allocator@I@std@@@std@@AEAAXQEAI_K1@Z
	?_Change_array@?$vector@UStateInfo@StateSequence@TimingModel@Avian@Infineon@@V?$allocator@UStateInfo@StateSequence@TimingModel@Avian@Infineon@@@std@@@std@@AEAAXQEAUStateInfo@StateSequence@TimingModel@Avian@Infineon@@_K1@Z
	?_Check_grow_by_1@?$_Tree@V?$_Tmap_traits@EIU?$less@E@std@@V?$allocator@U?$pair@$$CBEI@std@@@2@$0A@@std@@@std@@IEAAXXZ
	?_Check_grow_by_1@?$_Tree@V?$_Tmap_traits@EURegister_Modification@Driver@Avian@Infineon@@U?$less@E@std@@V?$allocator@U?$pair@$$CBEURegister_Modification@Driver@Avian@Infineon@@@std@@@6@$0A@@std@@@std@@IEAAXXZ
	?_Check_grow_by_1@?$_Tree@V?$_Tmap_traits@IV?$vector@MV?$allocator@M@std@@@std@@U?$less@I@2@V?$allocator@U?$pair@$$CBIV?$vector@MV?$allocator@M@std@@@std@@@std@@@2@$0A@@std@@@std@@IEAAXXZ
	?_Check_grow_by_1@?$_Tree@V?$_Tmap_traits@V?$basic_string@DU?$char_traits@D@std@@V?$allocator@D@2@@std@@UAddress@?$NamedMemory@GI@@U?$less@V?$basic_string@DU?$char_traits@D@std@@V?$allocator@D@2@@std@@@2@V?$allocator@U?$pair@$$CBV?$basic_string@DU?$char_traits@D@std@@V?$allocator@D@2@@std@@UAddress@?$NamedMemory@GI@@@std@@@2@$0A@@std@@@std@@IEAAXXZ
	?_Check_offset@?$_String_val@U?$_Simple_types@D@std@@@std@@QEBAX_K@Z
	?_Compat@?$_Array_const_iterator@E$0BIA@@std@@QEBAXAEBV12@@Z
	?_Compat@?$_Array_const_iterator@I$01@std@@QEBAXAEBV12@@Z
	?_Compat@?$_Vector_const_iterator@V?$_Vector_val@U?$_Simple_types@I@std@@@std@@@std@@QEBAXAEBV12@@Z
	?_Compat@?$_Vector_const_iterator@V?$_Vector_val@U?$_Simple_types@UStateInfo@StateSequence@TimingModel@Avian@Infineon@@@std@@@std@@@std@@QEBAXAEBV12@@Z
	?_Construct_empty@?$basic_string@DU?$char_traits@D@std@@V?$allocator@D@2@@std@@AEAAXXZ
	?_Copy@?$_Func_impl_no_alloc@V<lambda_fe68efc729bc7c1d7a5ab8f29f62bec5>@@XI@std@@EEBAPEAV?$_Func_base@XI@2@PEAX@Z
	?_Deallocate_for_capacity@?$basic_string@DU?$char_traits@D@std@@V?$allocator@D@2@@std@@CAXAEAV?$allocator@D@2@QEAD_K@Z
	?_Decref@?$_Ptr_base@VIBridge@@@std@@IEAAXXZ
	?_Decref@_Ref_count_base@std@@QEAAXXZ
	?_Decwref@_Ref_count_base@std@@QEAAXXZ
	?_Delete_this@?$_Func_impl_no_alloc@V<lambda_fe68efc729bc7c1d7a5ab8f29f62bec5>@@XI@std@@EEAAX_N@Z
	?_Do_call@?$_Func_impl_no_alloc@V<lambda_fe68efc729bc7c1d7a5ab8f29f62bec5>@@XI@std@@EEAAX$$QEAI@Z
	?_Empty@?$_Func_class@XAEAV?$list@UTimer@ModelBGT60TRxxC@TimingModel@Avian@Infineon@@V?$allocator@UTimer@ModelBGT60TRxxC@TimingModel@Avian@Infineon@@@std@@@std@@@std@@IEBA_NXZ
	?_Empty@?$_Func_class@XI@std@@IEBA_NXZ
	?_Empty@?$_Func_class@XPEAVStrataPort@Avian@Infineon@@I@std@@IEBA_NXZ
	?_Extract@?$_In_place_key_extract_map@EEI@std@@SAAEBEAEBEAEBI@Z
	?_Extract@?$_In_place_key_extract_map@IIG@std@@SAAEBIAEBIAEBG@Z
	?_Extract@?$_In_place_key_extract_map@V?$basic_string@DU?$char_traits@D@std@@V?$allocator@D@2@@std@@U?$pair@$$CBV?$basic_string@DU?$char_traits@D@std@@V?$allocator@D@2@@std@@UAddress@?$NamedMemory@GI@@@2@@std@@SAAEBV?$basic_string@DU?$char_traits@D@std@@V?$allocator@D@2@@2@AEBU?$pair@$$CBV?$basic_string@DU?$char_traits@D@std@@V?$allocator@D@2@@std@@UAddress@?$NamedMemory@GI@@@2@@Z
	?_Get@?$_Func_impl_no_alloc@V<lambda_fe68efc729bc7c1d7a5ab8f29f62bec5>@@XI@std@@EEBAPEBXXZ
	?_Get_buffer_view@?$basic_stringbuf@DU?$char_traits@D@std@@V?$allocator@D@2@@std@@QEBA?AU_Buffer_view@12@XZ
	?_Get_first@?$_Compressed_pair@U?$default_delete@VDriver@Avian@Infineon@@@std@@PEAVDriver@Avian@Infineon@@$00@std@@QEAAAEAU?$default_delete@VDriver@Avian@Infineon@@@2@XZ
	?_Get_first@?$_Compressed_pair@U?$default_delete@VModelBGT60TR11D@TimingModel@Avian@Infineon@@@std@@PEAVModelBGT60TR11D@TimingModel@Avian@Infineon@@$00@std@@QEAAAEAU?$default_delete@VModelBGT60TR11D@TimingModel@Avian@Infineon@@@2@XZ
	?_Get_first@?$_Compressed_pair@U?$default_delete@VModelBGT60TRxxC@TimingModel@Avian@Infineon@@@std@@PEAVModelBGT60TRxxC@TimingModel@Avian@Infineon@@$00@std@@QEAAAEAU?$default_delete@VModelBGT60TRxxC@TimingModel@Avian@Infineon@@@2@XZ
	?_Get_first@?$_Compressed_pair@U?$default_delete@VModelBGT60TRxxD@TimingModel@Avian@Infineon@@@std@@PEAVModelBGT60TRxxD@TimingModel@Avian@Infineon@@$00@std@@QEAAAEAU?$default_delete@VModelBGT60TRxxD@TimingModel@Avian@Infineon@@@2@XZ
	?_Get_first@?$_Compressed_pair@U?$default_delete@VSequenceParameters11D@TimingModel@Avian@Infineon@@@std@@PEAVSequenceParameters11D@TimingModel@Avian@Infineon@@$00@std@@QEAAAEAU?$default_delete@VSequenceParameters11D@TimingModel@Avian@Infineon@@@2@XZ
	?_Get_first@?$_Compressed_pair@U?$default_delete@VSequenceParameters@TimingModel@Avian@Infineon@@@std@@PEAVSequenceParameters@TimingModel@Avian@Infineon@@$00@std@@QEAAAEAU?$default_delete@VSequenceParameters@TimingModel@Avian@Infineon@@@2@XZ
	?_Get_first@?$_Compressed_pair@U?$default_delete@VSequenceParametersD@TimingModel@Avian@Infineon@@@std@@PEAVSequenceParametersD@TimingModel@Avian@Infineon@@$00@std@@QEAAAEAU?$default_delete@VSequenceParametersD@TimingModel@Avian@Infineon@@@2@XZ
	?_Get_first@?$_Compressed_pair@U?$less@E@std@@V?$_Compressed_pair@V?$allocator@U?$_Tree_node@U?$pair@$$CBEI@std@@PEAX@std@@@std@@V?$_Tree_val@U?$_Tree_simple_types@U?$pair@$$CBEI@std@@@std@@@2@$00@2@$00@std@@QEAAAEAU?$less@E@2@XZ
	?_Get_first@?$_Compressed_pair@U?$less@E@std@@V?$_Compressed_pair@V?$allocator@U?$_Tree_node@U?$pair@$$CBEI@std@@PEAX@std@@@std@@V?$_Tree_val@U?$_Tree_simple_types@U?$pair@$$CBEI@std@@@std@@@2@$00@2@$00@std@@QEBAAEBU?$less@E@2@XZ
	?_Get_first@?$_Compressed_pair@U?$less@E@std@@V?$_Compressed_pair@V?$allocator@U?$_Tree_node@U?$pair@$$CBEURegister_Modification@Driver@Avian@Infineon@@@std@@PEAX@std@@@std@@V?$_Tree_val@U?$_Tree_simple_types@U?$pair@$$CBEURegister_Modification@Driver@Avian@Infineon@@@std@@@std@@@2@$00@2@$00@std@@QEAAAEAU?$less@E@2@XZ
	?_Get_first@?$_Compressed_pair@U?$less@E@std@@V?$_Compressed_pair@V?$allocator@U?$_Tree_node@U?$pair@$$CBEURegister_Modification@Driver@Avian@Infineon@@@std@@PEAX@std@@@std@@V?$_Tree_val@U?$_Tree_simple_types@U?$pair@$$CBEURegister_Modification@Driver@Avian@Infineon@@@std@@@std@@@2@$00@2@$00@std@@QEBAAEBU?$less@E@2@XZ
	?_Get_first@?$_Compressed_pair@U?$less@I@std@@V?$_Compressed_pair@V?$allocator@U?$_Tree_node@U?$pair@$$CBIV?$vector@MV?$allocator@M@std@@@std@@@std@@PEAX@std@@@std@@V?$_Tree_val@U?$_Tree_simple_types@U?$pair@$$CBIV?$vector@MV?$allocator@M@std@@@std@@@std@@@std@@@2@$00@2@$00@std@@QEBAAEBU?$less@I@2@XZ
	?_Get_first@?$_Compressed_pair@U?$less@V?$basic_string@DU?$char_traits@D@std@@V?$allocator@D@2@@std@@@std@@V?$_Compressed_pair@V?$allocator@U?$_Tree_node@U?$pair@$$CBV?$basic_string@DU?$char_traits@D@std@@V?$allocator@D@2@@std@@UAddress@?$NamedMemory@GI@@@std@@PEAX@std@@@std@@V?$_Tree_val@U?$_Tree_simple_types@U?$pair@$$CBV?$basic_string@DU?$char_traits@D@std@@V?$allocator@D@2@@std@@UAddress@?$NamedMemory@GI@@@std@@@std@@@2@$00@2@$00@std@@QEBAAEBU?$less@V?$basic_string@DU?$char_traits@D@std@@V?$allocator@D@2@@std@@@2@XZ
	?_Get_first@?$_Compressed_pair@V?$allocator@D@std@@V?$_String_val@U?$_Simple_types@D@std@@@2@$00@std@@QEAAAEAV?$allocator@D@2@XZ
	?_Get_first@?$_Compressed_pair@V?$allocator@D@std@@V?$_String_val@U?$_Simple_types@D@std@@@2@$00@std@@QEBAAEBV?$allocator@D@2@XZ
	?_Get_first@?$_Compressed_pair@V?$allocator@G@std@@V?$_Vector_val@U?$_Simple_types@G@std@@@2@$00@std@@QEAAAEAV?$allocator@G@2@XZ
	?_Get_first@?$_Compressed_pair@V?$allocator@G@std@@V?$_Vector_val@U?$_Simple_types@G@std@@@2@$00@std@@QEBAAEBV?$allocator@G@2@XZ
	?_Get_first@?$_Compressed_pair@V?$allocator@I@std@@V?$_Vector_val@U?$_Simple_types@I@std@@@2@$00@std@@QEAAAEAV?$allocator@I@2@XZ
	?_Get_first@?$_Compressed_pair@V?$allocator@I@std@@V?$_Vector_val@U?$_Simple_types@I@std@@@2@$00@std@@QEBAAEBV?$allocator@I@2@XZ
	?_Get_first@?$_Compressed_pair@V?$allocator@M@std@@V?$_Vector_val@U?$_Simple_types@M@std@@@2@$00@std@@QEAAAEAV?$allocator@M@2@XZ
	?_Get_first@?$_Compressed_pair@V?$allocator@M@std@@V?$_Vector_val@U?$_Simple_types@M@std@@@2@$00@std@@QEBAAEBV?$allocator@M@2@XZ
	?_Get_first@?$_Compressed_pair@V?$allocator@U?$_List_node@UTimer@ModelBGT60TRxxC@TimingModel@Avian@Infineon@@PEAX@std@@@std@@V?$_List_val@U?$_List_simple_types@UTimer@ModelBGT60TRxxC@TimingModel@Avian@Infineon@@@std@@@2@$00@std@@QEAAAEAV?$allocator@U?$_List_node@UTimer@ModelBGT60TRxxC@TimingModel@Avian@Infineon@@PEAX@std@@@2@XZ
	?_Get_first@?$_Compressed_pair@V?$allocator@U?$_List_node@UTimer@ModelBGT60TRxxC@TimingModel@Avian@Infineon@@PEAX@std@@@std@@V?$_List_val@U?$_List_simple_types@UTimer@ModelBGT60TRxxC@TimingModel@Avian@Infineon@@@std@@@2@$00@std@@QEBAAEBV?$allocator@U?$_List_node@UTimer@ModelBGT60TRxxC@TimingModel@Avian@Infineon@@PEAX@std@@@2@XZ
	?_Get_first@?$_Compressed_pair@V?$allocator@U?$_Tree_node@U?$pair@$$CBEI@std@@PEAX@std@@@std@@V?$_Tree_val@U?$_Tree_simple_types@U?$pair@$$CBEI@std@@@std@@@2@$00@std@@QEAAAEAV?$allocator@U?$_Tree_node@U?$pair@$$CBEI@std@@PEAX@std@@@2@XZ
	?_Get_first@?$_Compressed_pair@V?$allocator@U?$_Tree_node@U?$pair@$$CBEI@std@@PEAX@std@@@std@@V?$_Tree_val@U?$_Tree_simple_types@U?$pair@$$CBEI@std@@@std@@@2@$00@std@@QEBAAEBV?$allocator@U?$_Tree_node@U?$pair@$$CBEI@std@@PEAX@std@@@2@XZ
	?_Get_first@?$_Compressed_pair@V?$allocator@U?$_Tree_node@U?$pair@$$CBEURegister_Modification@Driver@Avian@Infineon@@@std@@PEAX@std@@@std@@V?$_Tree_val@U?$_Tree_simple_types@U?$pair@$$CBEURegister_Modification@Driver@Avian@Infineon@@@std@@@std@@@2@$00@std@@QEAAAEAV?$allocator@U?$_Tree_node@U?$pair@$$CBEURegister_Modification@Driver@Avian@Infineon@@@std@@PEAX@std@@@2@XZ
	?_Get_first@?$_Compressed_pair@V?$allocator@U?$_Tree_node@U?$pair@$$CBEURegister_Modification@Driver@Avian@Infineon@@@std@@PEAX@std@@@std@@V?$_Tree_val@U?$_Tree_simple_types@U?$pair@$$CBEURegister_Modification@Driver@Avian@Infineon@@@std@@@std@@@2@$00@std@@QEBAAEBV?$allocator@U?$_Tree_node@U?$pair@$$CBEURegister_Modification@Driver@Avian@Infineon@@@std@@PEAX@std@@@2@XZ
	?_Get_first@?$_Compressed_pair@V?$allocator@U?$_Tree_node@U?$pair@$$CBIV?$vector@MV?$allocator@M@std@@@std@@@std@@PEAX@std@@@std@@V?$_Tree_val@U?$_Tree_simple_types@U?$pair@$$CBIV?$vector@MV?$allocator@M@std@@@std@@@std@@@std@@@2@$00@std@@QEAAAEAV?$allocator@U?$_Tree_node@U?$pair@$$CBIV?$vector@MV?$allocator@M@std@@@std@@@std@@PEAX@std@@@2@XZ
	?_Get_first@?$_Compressed_pair@V?$allocator@U?$_Tree_node@U?$pair@$$CBIV?$vector@MV?$allocator@M@std@@@std@@@std@@PEAX@std@@@std@@V?$_Tree_val@U?$_Tree_simple_types@U?$pair@$$CBIV?$vector@MV?$allocator@M@std@@@std@@@std@@@std@@@2@$00@std@@QEBAAEBV?$allocator@U?$_Tree_node@U?$pair@$$CBIV?$vector@MV?$allocator@M@std@@@std@@@std@@PEAX@std@@@2@XZ
	?_Get_first@?$_Compressed_pair@V?$allocator@U?$_Tree_node@U?$pair@$$CBV?$basic_string@DU?$char_traits@D@std@@V?$allocator@D@2@@std@@UAddress@?$NamedMemory@GI@@@std@@PEAX@std@@@std@@V?$_Tree_val@U?$_Tree_simple_types@U?$pair@$$CBV?$basic_string@DU?$char_traits@D@std@@V?$allocator@D@2@@std@@UAddress@?$NamedMemory@GI@@@std@@@std@@@2@$00@std@@QEAAAEAV?$allocator@U?$_Tree_node@U?$pair@$$CBV?$basic_string@DU?$char_traits@D@std@@V?$allocator@D@2@@std@@UAddress@?$NamedMemory@GI@@@std@@PEAX@std@@@2@XZ
	?_Get_first@?$_Compressed_pair@V?$allocator@U?$_Tree_node@U?$pair@$$CBV?$basic_string@DU?$char_traits@D@std@@V?$allocator@D@2@@std@@UAddress@?$NamedMemory@GI@@@std@@PEAX@std@@@std@@V?$_Tree_val@U?$_Tree_simple_types@U?$pair@$$CBV?$basic_string@DU?$char_traits@D@std@@V?$allocator@D@2@@std@@UAddress@?$NamedMemory@GI@@@std@@@std@@@2@$00@std@@QEBAAEBV?$allocator@U?$_Tree_node@U?$pair@$$CBV?$basic_string@DU?$char_traits@D@std@@V?$allocator@D@2@@std@@UAddress@?$NamedMemory@GI@@@std@@PEAX@std@@@2@XZ
	?_Get_first@?$_Compressed_pair@V?$allocator@UStateInfo@StateSequence@TimingModel@Avian@Infineon@@@std@@V?$_Vector_val@U?$_Simple_types@UStateInfo@StateSequence@TimingModel@Avian@Infineon@@@std@@@2@$00@std@@QEAAAEAV?$allocator@UStateInfo@StateSequence@TimingModel@Avian@Infineon@@@2@XZ
	?_Get_first@?$_Compressed_pair@V?$allocator@UStateInfo@StateSequence@TimingModel@Avian@Infineon@@@std@@V?$_Vector_val@U?$_Simple_types@UStateInfo@StateSequence@TimingModel@Avian@Infineon@@@std@@@2@$00@std@@QEBAAEBV?$allocator@UStateInfo@StateSequence@TimingModel@Avian@Infineon@@@2@XZ
	?_Get_scary@?$_Tree@V?$_Tmap_traits@EIU?$less@E@std@@V?$allocator@U?$pair@$$CBEI@std@@@2@$0A@@std@@@std@@IEAAPEAV?$_Tree_val@U?$_Tree_simple_types@U?$pair@$$CBEI@std@@@std@@@2@XZ
	?_Get_scary@?$_Tree@V?$_Tmap_traits@EIU?$less@E@std@@V?$allocator@U?$pair@$$CBEI@std@@@2@$0A@@std@@@std@@IEBAPEBV?$_Tree_val@U?$_Tree_simple_types@U?$pair@$$CBEI@std@@@std@@@2@XZ
	?_Get_scary@?$_Tree@V?$_Tmap_traits@EURegister_Modification@Driver@Avian@Infineon@@U?$less@E@std@@V?$allocator@U?$pair@$$CBEURegister_Modification@Driver@Avian@Infineon@@@std@@@6@$0A@@std@@@std@@IEAAPEAV?$_Tree_val@U?$_Tree_simple_types@U?$pair@$$CBEURegister_Modification@Driver@Avian@Infineon@@@std@@@std@@@2@XZ
	?_Get_scary@?$_Tree@V?$_Tmap_traits@EURegister_Modification@Driver@Avian@Infineon@@U?$less@E@std@@V?$allocator@U?$pair@$$CBEURegister_Modification@Driver@Avian@Infineon@@@std@@@6@$0A@@std@@@std@@IEBAPEBV?$_Tree_val@U?$_Tree_simple_types@U?$pair@$$CBEURegister_Modification@Driver@Avian@Infineon@@@std@@@std@@@2@XZ
	?_Get_scary@?$_Tree@V?$_Tmap_traits@IV?$vector@MV?$allocator@M@std@@@std@@U?$less@I@2@V?$allocator@U?$pair@$$CBIV?$vector@MV?$allocator@M@std@@@std@@@std@@@2@$0A@@std@@@std@@IEAAPEAV?$_Tree_val@U?$_Tree_simple_types@U?$pair@$$CBIV?$vector@MV?$allocator@M@std@@@std@@@std@@@std@@@2@XZ
	?_Get_scary@?$_Tree@V?$_Tmap_traits@IV?$vector@MV?$allocator@M@std@@@std@@U?$less@I@2@V?$allocator@U?$pair@$$CBIV?$vector@MV?$allocator@M@std@@@std@@@std@@@2@$0A@@std@@@std@@IEBAPEBV?$_Tree_val@U?$_Tree_simple_types@U?$pair@$$CBIV?$vector@MV?$allocator@M@std@@@std@@@std@@@std@@@2@XZ
	?_Get_scary@?$_Tree@V?$_Tmap_traits@V?$basic_string@DU?$char_traits@D@std@@V?$allocator@D@2@@std@@UAddress@?$NamedMemory@GI@@U?$less@V?$basic_string@DU?$char_traits@D@std@@V?$allocator@D@2@@std@@@2@V?$allocator@U?$pair@$$CBV?$basic_string@DU?$char_traits@D@std@@V?$allocator@D@2@@std@@UAddress@?$NamedMemory@GI@@@std@@@2@$0A@@std@@@std@@IEAAPEAV?$_Tree_val@U?$_Tree_simple_types@U?$pair@$$CBV?$basic_string@DU?$char_traits@D@std@@V?$allocator@D@2@@std@@UAddress@?$NamedMemory@GI@@@std@@@std@@@2@XZ
	?_Get_scary@?$_Tree@V?$_Tmap_traits@V?$basic_string@DU?$char_traits@D@std@@V?$allocator@D@2@@std@@UAddress@?$NamedMemory@GI@@U?$less@V?$basic_string@DU?$char_traits@D@std@@V?$allocator@D@2@@std@@@2@V?$allocator@U?$pair@$$CBV?$basic_string@DU?$char_traits@D@std@@V?$allocator@D@2@@std@@UAddress@?$NamedMemory@GI@@@std@@@2@$0A@@std@@@std@@IEBAPEBV?$_Tree_val@U?$_Tree_simple_types@U?$pair@$$CBV?$basic_string@DU?$char_traits@D@std@@V?$allocator@D@2@@std@@UAddress@?$NamedMemory@GI@@@std@@@std@@@2@XZ
	?_Getal@?$_Tree@V?$_Tmap_traits@EIU?$less@E@std@@V?$allocator@U?$pair@$$CBEI@std@@@2@$0A@@std@@@std@@IEAAAEAV?$allocator@U?$_Tree_node@U?$pair@$$CBEI@std@@PEAX@std@@@2@XZ
	?_Getal@?$_Tree@V?$_Tmap_traits@EIU?$less@E@std@@V?$allocator@U?$pair@$$CBEI@std@@@2@$0A@@std@@@std@@IEBAAEBV?$allocator@U?$_Tree_node@U?$pair@$$CBEI@std@@PEAX@std@@@2@XZ
	?_Getal@?$_Tree@V?$_Tmap_traits@EURegister_Modification@Driver@Avian@Infineon@@U?$less@E@std@@V?$allocator@U?$pair@$$CBEURegister_Modification@Driver@Avian@Infineon@@@std@@@6@$0A@@std@@@std@@IEAAAEAV?$allocator@U?$_Tree_node@U?$pair@$$CBEURegister_Modification@Driver@Avian@Infineon@@@std@@PEAX@std@@@2@XZ
	?_Getal@?$_Tree@V?$_Tmap_traits@EURegister_Modification@Driver@Avian@Infineon@@U?$less@E@std@@V?$allocator@U?$pair@$$CBEURegister_Modification@Driver@Avian@Infineon@@@std@@@6@$0A@@std@@@std@@IEBAAEBV?$allocator@U?$_Tree_node@U?$pair@$$CBEURegister_Modification@Driver@Avian@Infineon@@@std@@PEAX@std@@@2@XZ
	?_Getal@?$_Tree@V?$_Tmap_traits@IV?$vector@MV?$allocator@M@std@@@std@@U?$less@I@2@V?$allocator@U?$pair@$$CBIV?$vector@MV?$allocator@M@std@@@std@@@std@@@2@$0A@@std@@@std@@IEAAAEAV?$allocator@U?$_Tree_node@U?$pair@$$CBIV?$vector@MV?$allocator@M@std@@@std@@@std@@PEAX@std@@@2@XZ
	?_Getal@?$_Tree@V?$_Tmap_traits@IV?$vector@MV?$allocator@M@std@@@std@@U?$less@I@2@V?$allocator@U?$pair@$$CBIV?$vector@MV?$allocator@M@std@@@std@@@std@@@2@$0A@@std@@@std@@IEBAAEBV?$allocator@U?$_Tree_node@U?$pair@$$CBIV?$vector@MV?$allocator@M@std@@@std@@@std@@PEAX@std@@@2@XZ
	?_Getal@?$_Tree@V?$_Tmap_traits@V?$basic_string@DU?$char_traits@D@std@@V?$allocator@D@2@@std@@UAddress@?$NamedMemory@GI@@U?$less@V?$basic_string@DU?$char_traits@D@std@@V?$allocator@D@2@@std@@@2@V?$allocator@U?$pair@$$CBV?$basic_string@DU?$char_traits@D@std@@V?$allocator@D@2@@std@@UAddress@?$NamedMemory@GI@@@std@@@2@$0A@@std@@@std@@IEAAAEAV?$allocator@U?$_Tree_node@U?$pair@$$CBV?$basic_string@DU?$char_traits@D@std@@V?$allocator@D@2@@std@@UAddress@?$NamedMemory@GI@@@std@@PEAX@std@@@2@XZ
	?_Getal@?$_Tree@V?$_Tmap_traits@V?$basic_string@DU?$char_traits@D@std@@V?$allocator@D@2@@std@@UAddress@?$NamedMemory@GI@@U?$less@V?$basic_string@DU?$char_traits@D@std@@V?$allocator@D@2@@std@@@2@V?$allocator@U?$pair@$$CBV?$basic_string@DU?$char_traits@D@std@@V?$allocator@D@2@@std@@UAddress@?$NamedMemory@GI@@@std@@@2@$0A@@std@@@std@@IEBAAEBV?$allocator@U?$_Tree_node@U?$pair@$$CBV?$basic_string@DU?$char_traits@D@std@@V?$allocator@D@2@@std@@UAddress@?$NamedMemory@GI@@@std@@PEAX@std@@@2@XZ
	?_Getal@?$basic_string@DU?$char_traits@D@std@@V?$allocator@D@2@@std@@AEAAAEAV?$allocator@D@2@XZ
	?_Getal@?$basic_string@DU?$char_traits@D@std@@V?$allocator@D@2@@std@@AEBAAEBV?$allocator@D@2@XZ
	?_Getal@?$list@UTimer@ModelBGT60TRxxC@TimingModel@Avian@Infineon@@V?$allocator@UTimer@ModelBGT60TRxxC@TimingModel@Avian@Infineon@@@std@@@std@@AEAAAEAV?$allocator@U?$_List_node@UTimer@ModelBGT60TRxxC@TimingModel@Avian@Infineon@@PEAX@std@@@2@XZ
	?_Getal@?$list@UTimer@ModelBGT60TRxxC@TimingModel@Avian@Infineon@@V?$allocator@UTimer@ModelBGT60TRxxC@TimingModel@Avian@Infineon@@@std@@@std@@AEBAAEBV?$allocator@U?$_List_node@UTimer@ModelBGT60TRxxC@TimingModel@Avian@Infineon@@PEAX@std@@@2@XZ
	?_Getal@?$vector@GV?$allocator@G@std@@@std@@AEAAAEAV?$allocator@G@2@XZ
	?_Getal@?$vector@GV?$allocator@G@std@@@std@@AEBAAEBV?$allocator@G@2@XZ
	?_Getal@?$vector@IV?$allocator@I@std@@@std@@AEAAAEAV?$allocator@I@2@XZ
	?_Getal@?$vector@IV?$allocator@I@std@@@std@@AEBAAEBV?$allocator@I@2@XZ
	?_Getal@?$vector@MV?$allocator@M@std@@@std@@AEAAAEAV?$allocator@M@2@XZ
	?_Getal@?$vector@MV?$allocator@M@std@@@std@@AEBAAEBV?$allocator@M@2@XZ
	?_Getal@?$vector@UStateInfo@StateSequence@TimingModel@Avian@Infineon@@V?$allocator@UStateInfo@StateSequence@TimingModel@Avian@Infineon@@@std@@@std@@AEAAAEAV?$allocator@UStateInfo@StateSequence@TimingModel@Avian@Infineon@@@2@XZ
	?_Getal@?$vector@UStateInfo@StateSequence@TimingModel@Avian@Infineon@@V?$allocator@UStateInfo@StateSequence@TimingModel@Avian@Infineon@@@std@@@std@@AEBAAEBV?$allocator@UStateInfo@StateSequence@TimingModel@Avian@Infineon@@@2@XZ
	?_Getcomp@?$_Tree@V?$_Tmap_traits@EIU?$less@E@std@@V?$allocator@U?$pair@$$CBEI@std@@@2@$0A@@std@@@std@@IEAAAEAU?$less@E@2@XZ
	?_Getcomp@?$_Tree@V?$_Tmap_traits@EIU?$less@E@std@@V?$allocator@U?$pair@$$CBEI@std@@@2@$0A@@std@@@std@@IEBAAEBU?$less@E@2@XZ
	?_Getcomp@?$_Tree@V?$_Tmap_traits@EURegister_Modification@Driver@Avian@Infineon@@U?$less@E@std@@V?$allocator@U?$pair@$$CBEURegister_Modification@Driver@Avian@Infineon@@@std@@@6@$0A@@std@@@std@@IEAAAEAU?$less@E@2@XZ
	?_Getcomp@?$_Tree@V?$_Tmap_traits@EURegister_Modification@Driver@Avian@Infineon@@U?$less@E@std@@V?$allocator@U?$pair@$$CBEURegister_Modification@Driver@Avian@Infineon@@@std@@@6@$0A@@std@@@std@@IEBAAEBU?$less@E@2@XZ
	?_Getcomp@?$_Tree@V?$_Tmap_traits@IV?$vector@MV?$allocator@M@std@@@std@@U?$less@I@2@V?$allocator@U?$pair@$$CBIV?$vector@MV?$allocator@M@std@@@std@@@std@@@2@$0A@@std@@@std@@IEBAAEBU?$less@I@2@XZ
	?_Getcomp@?$_Tree@V?$_Tmap_traits@V?$basic_string@DU?$char_traits@D@std@@V?$allocator@D@2@@std@@UAddress@?$NamedMemory@GI@@U?$less@V?$basic_string@DU?$char_traits@D@std@@V?$allocator@D@2@@std@@@2@V?$allocator@U?$pair@$$CBV?$basic_string@DU?$char_traits@D@std@@V?$allocator@D@2@@std@@UAddress@?$NamedMemory@GI@@@std@@@2@$0A@@std@@@std@@IEBAAEBU?$less@V?$basic_string@DU?$char_traits@D@std@@V?$allocator@D@2@@std@@@2@XZ
	?_Getcont@_Iterator_base12@std@@QEBAPEBU_Container_base12@2@XZ
	?_Getimpl@?$_Func_class@XAEAV?$list@UTimer@ModelBGT60TRxxC@TimingModel@Avian@Infineon@@V?$allocator@UTimer@ModelBGT60TRxxC@TimingModel@Avian@Infineon@@@std@@@std@@@std@@AEBAPEAV?$_Func_base@XAEAV?$list@UTimer@ModelBGT60TRxxC@TimingModel@Avian@Infineon@@V?$allocator@UTimer@ModelBGT60TRxxC@TimingModel@Avian@Infineon@@@std@@@std@@@2@XZ
	?_Getimpl@?$_Func_class@XI@std@@AEBAPEAV?$_Func_base@XI@2@XZ
	?_Getimpl@?$_Func_class@XPEAVStrataPort@Avian@Infineon@@I@std@@AEBAPEAV?$_Func_base@XPEAVStrataPort@Avian@Infineon@@I@2@XZ
	?_Getstate@?$basic_stringbuf@DU?$char_traits@D@std@@V?$allocator@D@2@@std@@CAHH@Z
	?_Incref@?$_Ptr_base@VIBridge@@@std@@IEBAXXZ
	?_Incref@_Ref_count_base@std@@QEAAXXZ
	?_Insert_node@?$_Tree_val@U?$_Tree_simple_types@U?$pair@$$CBEI@std@@@std@@@std@@QEAAPEAU?$_Tree_node@U?$pair@$$CBEI@std@@PEAX@2@U?$_Tree_id@PEAU?$_Tree_node@U?$pair@$$CBEI@std@@PEAX@std@@@2@QEAU32@@Z
	?_Insert_node@?$_Tree_val@U?$_Tree_simple_types@U?$pair@$$CBEURegister_Modification@Driver@Avian@Infineon@@@std@@@std@@@std@@QEAAPEAU?$_Tree_node@U?$pair@$$CBEURegister_Modification@Driver@Avian@Infineon@@@std@@PEAX@2@U?$_Tree_id@PEAU?$_Tree_node@U?$pair@$$CBEURegister_Modification@Driver@Avian@Infineon@@@std@@PEAX@std@@@2@QEAU32@@Z
	?_Insert_node@?$_Tree_val@U?$_Tree_simple_types@U?$pair@$$CBIV?$vector@MV?$allocator@M@std@@@std@@@std@@@std@@@std@@QEAAPEAU?$_Tree_node@U?$pair@$$CBIV?$vector@MV?$allocator@M@std@@@std@@@std@@PEAX@2@U?$_Tree_id@PEAU?$_Tree_node@U?$pair@$$CBIV?$vector@MV?$allocator@M@std@@@std@@@std@@PEAX@std@@@2@QEAU32@@Z
	?_Insert_node@?$_Tree_val@U?$_Tree_simple_types@U?$pair@$$CBV?$basic_string@DU?$char_traits@D@std@@V?$allocator@D@2@@std@@UAddress@?$NamedMemory@GI@@@std@@@std@@@std@@QEAAPEAU?$_Tree_node@U?$pair@$$CBV?$basic_string@DU?$char_traits@D@std@@V?$allocator@D@2@@std@@UAddress@?$NamedMemory@GI@@@std@@PEAX@2@U?$_Tree_id@PEAU?$_Tree_node@U?$pair@$$CBV?$basic_string@DU?$char_traits@D@std@@V?$allocator@D@2@@std@@UAddress@?$NamedMemory@GI@@@std@@PEAX@std@@@2@QEAU32@@Z
	?_Large_mode_engaged@?$_String_val@U?$_Simple_types@D@std@@@std@@QEBA_NXZ
	?_Local@?$_Func_class@XAEAV?$list@UTimer@ModelBGT60TRxxC@TimingModel@Avian@Infineon@@V?$allocator@UTimer@ModelBGT60TRxxC@TimingModel@Avian@Infineon@@@std@@@std@@@std@@AEBA_NXZ
	?_Local@?$_Func_class@XI@std@@AEBA_NXZ
	?_Local@?$_Func_class@XPEAVStrataPort@Avian@Infineon@@I@std@@AEBA_NXZ
	?_Lrotate@?$_Tree_val@U?$_Tree_simple_types@U?$pair@$$CBEI@std@@@std@@@std@@QEAAXPEAU?$_Tree_node@U?$pair@$$CBEI@std@@PEAX@2@@Z
	?_Lrotate@?$_Tree_val@U?$_Tree_simple_types@U?$pair@$$CBEURegister_Modification@Driver@Avian@Infineon@@@std@@@std@@@std@@QEAAXPEAU?$_Tree_node@U?$pair@$$CBEURegister_Modification@Driver@Avian@Infineon@@@std@@PEAX@2@@Z
	?_Lrotate@?$_Tree_val@U?$_Tree_simple_types@U?$pair@$$CBIV?$vector@MV?$allocator@M@std@@@std@@@std@@@std@@@std@@QEAAXPEAU?$_Tree_node@U?$pair@$$CBIV?$vector@MV?$allocator@M@std@@@std@@@std@@PEAX@2@@Z
	?_Lrotate@?$_Tree_val@U?$_Tree_simple_types@U?$pair@$$CBV?$basic_string@DU?$char_traits@D@std@@V?$allocator@D@2@@std@@UAddress@?$NamedMemory@GI@@@std@@@std@@@std@@QEAAXPEAU?$_Tree_node@U?$pair@$$CBV?$basic_string@DU?$char_traits@D@std@@V?$allocator@D@2@@std@@UAddress@?$NamedMemory@GI@@@std@@PEAX@2@@Z
	?_Make_iter@?$list@UTimer@ModelBGT60TRxxC@TimingModel@Avian@Infineon@@V?$allocator@UTimer@ModelBGT60TRxxC@TimingModel@Avian@Infineon@@@std@@@std@@QEBA?AV?$_List_iterator@V?$_List_val@U?$_List_simple_types@UTimer@ModelBGT60TRxxC@TimingModel@Avian@Infineon@@@std@@@std@@@2@PEAU?$_List_node@UTimer@ModelBGT60TRxxC@TimingModel@Avian@Infineon@@PEAX@2@@Z
	?_Make_iterator_offset@?$vector@IV?$allocator@I@std@@@std@@AEAA?AV?$_Vector_iterator@V?$_Vector_val@U?$_Simple_types@I@std@@@std@@@2@_K@Z
	?_Maklocwcs@std@@YAPEA_WPEB_W@Z
	?_Max@?$_Tree_val@U?$_Tree_simple_types@U?$pair@$$CBEI@std@@@std@@@std@@SAPEAU?$_Tree_node@U?$pair@$$CBEI@std@@PEAX@2@PEAU32@@Z
	?_Max@?$_Tree_val@U?$_Tree_simple_types@U?$pair@$$CBEURegister_Modification@Driver@Avian@Infineon@@@std@@@std@@@std@@SAPEAU?$_Tree_node@U?$pair@$$CBEURegister_Modification@Driver@Avian@Infineon@@@std@@PEAX@2@PEAU32@@Z
	?_Max@?$_Tree_val@U?$_Tree_simple_types@U?$pair@$$CBV?$basic_string@DU?$char_traits@D@std@@V?$allocator@D@2@@std@@UAddress@?$NamedMemory@GI@@@std@@@std@@@std@@SAPEAU?$_Tree_node@U?$pair@$$CBV?$basic_string@DU?$char_traits@D@std@@V?$allocator@D@2@@std@@UAddress@?$NamedMemory@GI@@@std@@PEAX@2@PEAU32@@Z
	?_Min@?$_Tree_val@U?$_Tree_simple_types@U?$pair@$$CBEI@std@@@std@@@std@@SAPEAU?$_Tree_node@U?$pair@$$CBEI@std@@PEAX@2@PEAU32@@Z
	?_Min@?$_Tree_val@U?$_Tree_simple_types@U?$pair@$$CBEURegister_Modification@Driver@Avian@Infineon@@@std@@@std@@@std@@SAPEAU?$_Tree_node@U?$pair@$$CBEURegister_Modification@Driver@Avian@Infineon@@@std@@PEAX@2@PEAU32@@Z
	?_Min@?$_Tree_val@U?$_Tree_simple_types@U?$pair@$$CBV?$basic_string@DU?$char_traits@D@std@@V?$allocator@D@2@@std@@UAddress@?$NamedMemory@GI@@@std@@@std@@@std@@SAPEAU?$_Tree_node@U?$pair@$$CBV?$basic_string@DU?$char_traits@D@std@@V?$allocator@D@2@@std@@UAddress@?$NamedMemory@GI@@@std@@PEAX@2@PEAU32@@Z
	?_Move@?$_Func_impl_no_alloc@V<lambda_fe68efc729bc7c1d7a5ab8f29f62bec5>@@XI@std@@EEAAPEAV?$_Func_base@XI@2@PEAX@Z
	?_Mycnd@condition_variable@std@@AEAAPEAU_Cnd_internal_imp_t@@XZ
	?_Mymtx@_Mutex_base@std@@AEAAPEAU_Mtx_internal_imp_t@@XZ
	?_Myptr@?$_String_val@U?$_Simple_types@D@std@@@std@@QEAAPEADXZ
	?_Myptr@?$_String_val@U?$_Simple_types@D@std@@@std@@QEBAPEBDXZ
	?_Orphan_all@_Container_base12@std@@QEAAXXZ
	?_Orphan_all_locked_v3@_Container_base12@std@@AEAAXXZ
	?_Orphan_all_unlocked_v3@_Container_base12@std@@AEAAXXZ
	?_Orphan_me_locked_v3@_Iterator_base12@std@@AEAAXXZ
	?_Orphan_me_unlocked_v3@_Iterator_base12@std@@AEAAXXZ
	?_Orphan_ptr2@?$_List_val@U?$_List_simple_types@UTimer@ModelBGT60TRxxC@TimingModel@Avian@Infineon@@@std@@@std@@QEAAXPEAU?$_List_node@UTimer@ModelBGT60TRxxC@TimingModel@Avian@Infineon@@PEAX@2@@Z
	?_Orphan_ptr@?$_Tree_val@U?$_Tree_simple_types@U?$pair@$$CBEI@std@@@std@@@std@@QEAAXQEAU?$_Tree_node@U?$pair@$$CBEI@std@@PEAX@2@@Z
	?_Orphan_ptr@?$_Tree_val@U?$_Tree_simple_types@U?$pair@$$CBEURegister_Modification@Driver@Avian@Infineon@@@std@@@std@@@std@@QEAAXQEAU?$_Tree_node@U?$pair@$$CBEURegister_Modification@Driver@Avian@Infineon@@@std@@PEAX@2@@Z
	?_Orphan_ptr@?$_Tree_val@U?$_Tree_simple_types@U?$pair@$$CBV?$basic_string@DU?$char_traits@D@std@@V?$allocator@D@2@@std@@UAddress@?$NamedMemory@GI@@@std@@@std@@@std@@QEAAXQEAU?$_Tree_node@U?$pair@$$CBV?$basic_string@DU?$char_traits@D@std@@V?$allocator@D@2@@std@@UAddress@?$NamedMemory@GI@@@std@@PEAX@2@@Z
	?_Orphan_range@?$vector@IV?$allocator@I@std@@@std@@AEBAXPEAI0@Z
	?_Orphan_range@?$vector@UStateInfo@StateSequence@TimingModel@Avian@Infineon@@V?$allocator@UStateInfo@StateSequence@TimingModel@Avian@Infineon@@@std@@@std@@AEBAXPEAUStateInfo@StateSequence@TimingModel@Avian@Infineon@@0@Z
	?_Orphan_range_locked@?$vector@IV?$allocator@I@std@@@std@@AEBAXPEAI0@Z
	?_Orphan_range_locked@?$vector@UStateInfo@StateSequence@TimingModel@Avian@Infineon@@V?$allocator@UStateInfo@StateSequence@TimingModel@Avian@Infineon@@@std@@@std@@AEBAXPEAUStateInfo@StateSequence@TimingModel@Avian@Infineon@@0@Z
	?_Orphan_range_unlocked@?$vector@IV?$allocator@I@std@@@std@@AEBAXPEAI0@Z
	?_Orphan_range_unlocked@?$vector@UStateInfo@StateSequence@TimingModel@Avian@Infineon@@V?$allocator@UStateInfo@StateSequence@TimingModel@Avian@Infineon@@@std@@@std@@AEBAXPEAUStateInfo@StateSequence@TimingModel@Avian@Infineon@@0@Z
	?_Release@?$_Alloc_construct_ptr@V?$allocator@U?$_Tree_node@U?$pair@$$CBEI@std@@PEAX@std@@@std@@@std@@QEAAPEAU?$_Tree_node@U?$pair@$$CBEI@std@@PEAX@2@XZ
	?_Release@?$_Alloc_construct_ptr@V?$allocator@U?$_Tree_node@U?$pair@$$CBEURegister_Modification@Driver@Avian@Infineon@@@std@@PEAX@std@@@std@@@std@@QEAAPEAU?$_Tree_node@U?$pair@$$CBEURegister_Modification@Driver@Avian@Infineon@@@std@@PEAX@2@XZ
	?_Release@?$_Alloc_construct_ptr@V?$allocator@U?$_Tree_node@U?$pair@$$CBIV?$vector@MV?$allocator@M@std@@@std@@@std@@PEAX@std@@@std@@@std@@QEAAPEAU?$_Tree_node@U?$pair@$$CBIV?$vector@MV?$allocator@M@std@@@std@@@std@@PEAX@2@XZ
	?_Release@?$_Alloc_construct_ptr@V?$allocator@U?$_Tree_node@U?$pair@$$CBV?$basic_string@DU?$char_traits@D@std@@V?$allocator@D@2@@std@@UAddress@?$NamedMemory@GI@@@std@@PEAX@std@@@std@@@std@@QEAAPEAU?$_Tree_node@U?$pair@$$CBV?$basic_string@DU?$char_traits@D@std@@V?$allocator@D@2@@std@@UAddress@?$NamedMemory@GI@@@std@@PEAX@2@XZ
	?_Release@?$_Tree_head_scoped_ptr@V?$allocator@U?$_Tree_node@U?$pair@$$CBEI@std@@PEAX@std@@@std@@V?$_Tree_val@U?$_Tree_simple_types@U?$pair@$$CBEI@std@@@std@@@2@@std@@QEAAXXZ
	?_Release@?$_Tree_head_scoped_ptr@V?$allocator@U?$_Tree_node@U?$pair@$$CBV?$basic_string@DU?$char_traits@D@std@@V?$allocator@D@2@@std@@UAddress@?$NamedMemory@GI@@@std@@PEAX@std@@@std@@V?$_Tree_val@U?$_Tree_simple_types@U?$pair@$$CBV?$basic_string@DU?$char_traits@D@std@@V?$allocator@D@2@@std@@UAddress@?$NamedMemory@GI@@@std@@@std@@@2@@std@@QEAAXXZ
	?_Release@?$_Uninitialized_backout_al@V?$allocator@G@std@@@std@@QEAAPEAGXZ
	?_Release@?$_Uninitialized_backout_al@V?$allocator@I@std@@@std@@QEAAPEAIXZ
	?_Release@?$_Uninitialized_backout_al@V?$allocator@M@std@@@std@@QEAAPEAMXZ
	?_Release@?$_Uninitialized_backout_al@V?$allocator@UStateInfo@StateSequence@TimingModel@Avian@Infineon@@@std@@@std@@QEAAPEAUStateInfo@StateSequence@TimingModel@Avian@Infineon@@XZ
	?_Release@_Basic_container_proxy_ptr12@std@@QEAAXXZ
	?_Reset_copy@?$_Func_class@XI@std@@IEAAXAEBV12@@Z
	?_Reset_copy@?$_Func_class@XPEAVStrataPort@Avian@Infineon@@I@std@@IEAAXAEBV12@@Z
	?_Reset_move@?$_Func_class@XAEAV?$list@UTimer@ModelBGT60TRxxC@TimingModel@Avian@Infineon@@V?$allocator@UTimer@ModelBGT60TRxxC@TimingModel@Avian@Infineon@@@std@@@std@@@std@@IEAAX$$QEAV12@@Z
	?_Reset_move@?$_Func_class@XI@std@@IEAAX$$QEAV12@@Z
	?_Reset_move@?$_Func_class@XPEAVStrataPort@Avian@Infineon@@I@std@@IEAAX$$QEAV12@@Z
	?_Rrotate@?$_Tree_val@U?$_Tree_simple_types@U?$pair@$$CBEI@std@@@std@@@std@@QEAAXPEAU?$_Tree_node@U?$pair@$$CBEI@std@@PEAX@2@@Z
	?_Rrotate@?$_Tree_val@U?$_Tree_simple_types@U?$pair@$$CBEURegister_Modification@Driver@Avian@Infineon@@@std@@@std@@@std@@QEAAXPEAU?$_Tree_node@U?$pair@$$CBEURegister_Modification@Driver@Avian@Infineon@@@std@@PEAX@2@@Z
	?_Rrotate@?$_Tree_val@U?$_Tree_simple_types@U?$pair@$$CBIV?$vector@MV?$allocator@M@std@@@std@@@std@@@std@@@std@@QEAAXPEAU?$_Tree_node@U?$pair@$$CBIV?$vector@MV?$allocator@M@std@@@std@@@std@@PEAX@2@@Z
	?_Rrotate@?$_Tree_val@U?$_Tree_simple_types@U?$pair@$$CBV?$basic_string@DU?$char_traits@D@std@@V?$allocator@D@2@@std@@UAddress@?$NamedMemory@GI@@@std@@@std@@@std@@QEAAXPEAU?$_Tree_node@U?$pair@$$CBV?$basic_string@DU?$char_traits@D@std@@V?$allocator@D@2@@std@@UAddress@?$NamedMemory@GI@@@std@@PEAX@2@@Z
	?_Set@?$_Func_class@XAEAV?$list@UTimer@ModelBGT60TRxxC@TimingModel@Avian@Infineon@@V?$allocator@UTimer@ModelBGT60TRxxC@TimingModel@Avian@Infineon@@@std@@@std@@@std@@AEAAXPEAV?$_Func_base@XAEAV?$list@UTimer@ModelBGT60TRxxC@TimingModel@Avian@Infineon@@V?$allocator@UTimer@ModelBGT60TRxxC@TimingModel@Avian@Infineon@@@std@@@std@@@2@@Z
	?_Set@?$_Func_class@XI@std@@AEAAXPEAV?$_Func_base@XI@2@@Z
	?_Set@?$_Func_class@XPEAVStrataPort@Avian@Infineon@@I@std@@AEAAXPEAV?$_Func_base@XPEAVStrataPort@Avian@Infineon@@I@2@@Z
	?_Set_unchecked@?$bitset@$01@std@@AEAAAEAV12@_K_N@Z
	?_Set_unchecked@?$bitset@$03@std@@AEAAAEAV12@_K_N@Z
	?_Splice@?$list@UTimer@ModelBGT60TRxxC@TimingModel@Avian@Infineon@@V?$allocator@UTimer@ModelBGT60TRxxC@TimingModel@Avian@Infineon@@@std@@@std@@AEAAPEAU?$_List_node@UTimer@ModelBGT60TRxxC@TimingModel@Avian@Infineon@@PEAX@2@QEAU32@AEAV12@00_K@Z
	?_Subscript@?$bitset@$01@std@@AEBA_N_K@Z
	?_Subscript@?$bitset@$03@std@@AEBA_N_K@Z
	?_Swap@?$_Func_class@XI@std@@IEAAXAEAV12@@Z
	?_Swap@?$_Func_class@XPEAVStrataPort@Avian@Infineon@@I@std@@IEAAXAEAV12@@Z
	?_Swap_proxy_and_iterators@?$basic_string@DU?$char_traits@D@std@@V?$allocator@D@2@@std@@AEAAXAEAV12@@Z
	?_Swap_proxy_and_iterators@_Container_base12@std@@QEAAXAEAU12@@Z
	?_Swap_proxy_and_iterators_locked@_Container_base12@std@@AEAAXAEAU12@@Z
	?_Swap_proxy_and_iterators_unlocked@_Container_base12@std@@AEAAXAEAU12@@Z
	?_Swap_val_excluding_comp@?$_Tree@V?$_Tmap_traits@EIU?$less@E@std@@V?$allocator@U?$pair@$$CBEI@std@@@2@$0A@@std@@@std@@AEAAXAEAV12@@Z
	?_Swap_val_excluding_comp@?$_Tree@V?$_Tmap_traits@IV?$vector@MV?$allocator@M@std@@@std@@U?$less@I@2@V?$allocator@U?$pair@$$CBIV?$vector@MV?$allocator@M@std@@@std@@@std@@@2@$0A@@std@@@std@@AEAAXAEAV12@@Z
	?_Switch_to_buf@_Bxty@?$_String_val@U?$_Simple_types@D@std@@@std@@QEAAXXZ
	?_Take_contents@?$basic_string@DU?$char_traits@D@std@@V?$allocator@D@2@@std@@AEAAXAEAV12@@Z
	?_Target_type@?$_Func_impl_no_alloc@V<lambda_fe68efc729bc7c1d7a5ab8f29f62bec5>@@XI@std@@EEBAAEBVtype_info@@XZ
	?_Throw_bad_array_new_length@std@@YAXXZ
	?_Throw_tree_length_error@std@@YAXXZ
	?_Tidy@?$_Func_class@XAEAV?$list@UTimer@ModelBGT60TRxxC@TimingModel@Avian@Infineon@@V?$allocator@UTimer@ModelBGT60TRxxC@TimingModel@Avian@Infineon@@@std@@@std@@@std@@IEAAXXZ
	?_Tidy@?$_Func_class@XI@std@@IEAAXXZ
	?_Tidy@?$_Func_class@XPEAVStrataPort@Avian@Infineon@@I@std@@IEAAXXZ
	?_Tidy@?$basic_stringbuf@DU?$char_traits@D@std@@V?$allocator@D@2@@std@@IEAAXXZ
	?_Tidy@?$list@UTimer@ModelBGT60TRxxC@TimingModel@Avian@Infineon@@V?$allocator@UTimer@ModelBGT60TRxxC@TimingModel@Avian@Infineon@@@std@@@std@@AEAAXXZ
	?_Tidy@?$vector@GV?$allocator@G@std@@@std@@AEAAXXZ
	?_Tidy@?$vector@IV?$allocator@I@std@@@std@@AEAAXXZ
	?_Tidy@?$vector@MV?$allocator@M@std@@@std@@AEAAXXZ
	?_Tidy@?$vector@UStateInfo@StateSequence@TimingModel@Avian@Infineon@@V?$allocator@UStateInfo@StateSequence@TimingModel@Avian@Infineon@@@std@@@std@@AEAAXXZ
	?_Tidy_deallocate@?$basic_string@DU?$char_traits@D@std@@V?$allocator@D@2@@std@@AEAAXXZ
	?_Transfer_before@?$_List_node_emplace_op2@V?$allocator@U?$_List_node@UTimer@ModelBGT60TRxxC@TimingModel@Avian@Infineon@@PEAX@std@@@std@@@std@@QEAAPEAU?$_List_node@UTimer@ModelBGT60TRxxC@TimingModel@Avian@Infineon@@PEAX@2@QEAU32@@Z
	?_Unchecked_begin@?$_Tree@V?$_Tmap_traits@EIU?$less@E@std@@V?$allocator@U?$pair@$$CBEI@std@@@2@$0A@@std@@@std@@QEBA?AV?$_Tree_unchecked_const_iterator@V?$_Tree_val@U?$_Tree_simple_types@U?$pair@$$CBEI@std@@@std@@@std@@U_Iterator_base0@2@@2@XZ
	?_Unchecked_begin@?$_Tree@V?$_Tmap_traits@EURegister_Modification@Driver@Avian@Infineon@@U?$less@E@std@@V?$allocator@U?$pair@$$CBEURegister_Modification@Driver@Avian@Infineon@@@std@@@6@$0A@@std@@@std@@QEBA?AV?$_Tree_unchecked_const_iterator@V?$_Tree_val@U?$_Tree_simple_types@U?$pair@$$CBEURegister_Modification@Driver@Avian@Infineon@@@std@@@std@@@std@@U_Iterator_base0@2@@2@XZ
	?_Unchecked_begin@?$list@UTimer@ModelBGT60TRxxC@TimingModel@Avian@Infineon@@V?$allocator@UTimer@ModelBGT60TRxxC@TimingModel@Avian@Infineon@@@std@@@std@@QEAA?AV?$_List_unchecked_iterator@V?$_List_val@U?$_List_simple_types@UTimer@ModelBGT60TRxxC@TimingModel@Avian@Infineon@@@std@@@std@@@2@XZ
	?_Unchecked_begin@?$list@UTimer@ModelBGT60TRxxC@TimingModel@Avian@Infineon@@V?$allocator@UTimer@ModelBGT60TRxxC@TimingModel@Avian@Infineon@@@std@@@std@@QEBA?AV?$_List_unchecked_const_iterator@V?$_List_val@U?$_List_simple_types@UTimer@ModelBGT60TRxxC@TimingModel@Avian@Infineon@@@std@@@std@@U_Iterator_base0@2@@2@XZ
	?_Unchecked_begin@?$vector@IV?$allocator@I@std@@@std@@QEAAPEAIXZ
	?_Unchecked_begin@?$vector@IV?$allocator@I@std@@@std@@QEBAPEBIXZ
	?_Unchecked_begin@?$vector@MV?$allocator@M@std@@@std@@QEAAPEAMXZ
	?_Unchecked_end@?$_Tree@V?$_Tmap_traits@EIU?$less@E@std@@V?$allocator@U?$pair@$$CBEI@std@@@2@$0A@@std@@@std@@QEBA?AU_Default_sentinel@2@XZ
	?_Unchecked_end@?$_Tree@V?$_Tmap_traits@EURegister_Modification@Driver@Avian@Infineon@@U?$less@E@std@@V?$allocator@U?$pair@$$CBEURegister_Modification@Driver@Avian@Infineon@@@std@@@6@$0A@@std@@@std@@QEBA?AU_Default_sentinel@2@XZ
	?_Unchecked_end@?$list@UTimer@ModelBGT60TRxxC@TimingModel@Avian@Infineon@@V?$allocator@UTimer@ModelBGT60TRxxC@TimingModel@Avian@Infineon@@@std@@@std@@QEAA?AV?$_List_unchecked_iterator@V?$_List_val@U?$_List_simple_types@UTimer@ModelBGT60TRxxC@TimingModel@Avian@Infineon@@@std@@@std@@@2@XZ
	?_Unchecked_end@?$list@UTimer@ModelBGT60TRxxC@TimingModel@Avian@Infineon@@V?$allocator@UTimer@ModelBGT60TRxxC@TimingModel@Avian@Infineon@@@std@@@std@@QEBA?AV?$_List_unchecked_const_iterator@V?$_List_val@U?$_List_simple_types@UTimer@ModelBGT60TRxxC@TimingModel@Avian@Infineon@@@std@@@std@@U_Iterator_base0@2@@2@XZ
	?_Unchecked_end@?$vector@IV?$allocator@I@std@@@std@@QEAAPEAIXZ
	?_Unchecked_end@?$vector@IV?$allocator@I@std@@@std@@QEBAPEBIXZ
	?_Unchecked_end@?$vector@MV?$allocator@M@std@@@std@@QEAAPEAMXZ
	?_Unchecked_splice@?$_List_val@U?$_List_simple_types@UTimer@ModelBGT60TRxxC@TimingModel@Avian@Infineon@@@std@@@std@@SAPEAU?$_List_node@UTimer@ModelBGT60TRxxC@TimingModel@Avian@Infineon@@PEAX@2@QEAU32@00@Z
	?_Unlinknode@?$_List_val@U?$_List_simple_types@UTimer@ModelBGT60TRxxC@TimingModel@Avian@Infineon@@@std@@@std@@QEAAPEAU?$_List_node@UTimer@ModelBGT60TRxxC@TimingModel@Avian@Infineon@@PEAX@2@PEAU32@@Z
	?_Unwrapped@?$_Array_const_iterator@I$01@std@@QEBAPEBIXZ
	?_Unwrapped@?$_Array_iterator@I$01@std@@QEBAPEAIXZ
	?_Validate@?$bitset@$01@std@@CAX_K@Z
	?_Validate@?$bitset@$03@std@@CAX_K@Z
	?_Verify_offset@?$_Vector_const_iterator@V?$_Vector_val@U?$_Simple_types@UStateInfo@StateSequence@TimingModel@Avian@Infineon@@@std@@@std@@@std@@QEBAX_J@Z
	?_Verify_ownership_levels@_Mutex_base@std@@IEAA_NXZ
	?_Verify_with@?$_Array_const_iterator@I$01@std@@QEBAXAEBV12@@Z
	?_Xlen_string@std@@YAXXZ
	?_Xlength@?$vector@GV?$allocator@G@std@@@std@@CAXXZ
	?_Xlength@?$vector@IV?$allocator@I@std@@@std@@CAXXZ
	?_Xlength@?$vector@MV?$allocator@M@std@@@std@@CAXXZ
	?_Xlength@?$vector@UStateInfo@StateSequence@TimingModel@Avian@Infineon@@V?$allocator@UStateInfo@StateSequence@TimingModel@Avian@Infineon@@@std@@@std@@CAXXZ
	?_Xran@?$_String_val@U?$_Simple_types@D@std@@@std@@SAXXZ
	?__empty_global_delete@@YAXPEAX@Z
	?__empty_global_delete@@YAXPEAXW4align_val_t@std@@@Z
	?__empty_global_delete@@YAXPEAX_K@Z
	?__empty_global_delete@@YAXPEAX_KW4align_val_t@std@@@Z
	?addHeadline@StateList@StateSequence@TimingModel@Avian@Infineon@@QEAAAEAUStateInfo@2345@NAEBV?$basic_string@DU?$char_traits@D@std@@V?$allocator@D@2@@std@@@Z
	?addShapeEndState@ShapeGroup@StateSequence@TimingModel@Avian@Infineon@@QEAAXNAEBVModelBGT60TRxxC@345@@Z
	?addShapeState@ShapeGroup@StateSequence@TimingModel@Avian@Infineon@@QEAAXNAEBVModelBGT60TRxxC@345@@Z
	?addState@StateList@StateSequence@TimingModel@Avian@Infineon@@QEAAAEAUStateInfo@2345@NAEBVModelBGT60TRxxC@345@@Z
	?addStateTransition@StateList@StateSequence@TimingModel@Avian@Infineon@@AEAAAEAUStateInfo@2345@NAEBU62345@@Z
	?advanceToGroupEnd@Iterator@StateSequence@TimingModel@Avian@Infineon@@QEAAXXZ
	?advanceToShapeEnd@Iterator@StateSequence@TimingModel@Avian@Infineon@@QEAAXXZ
	?allocate@?$allocator@D@std@@QEAAPEAD_K@Z
	?allocate@?$allocator@G@std@@QEAAPEAG_K@Z
	?allocate@?$allocator@I@std@@QEAAPEAI_K@Z
	?allocate@?$allocator@M@std@@QEAAPEAM_K@Z
	?allocate@?$allocator@U?$_List_node@UTimer@ModelBGT60TRxxC@TimingModel@Avian@Infineon@@PEAX@std@@@std@@QEAAPEAU?$_List_node@UTimer@ModelBGT60TRxxC@TimingModel@Avian@Infineon@@PEAX@2@_K@Z
	?allocate@?$allocator@U?$_Tree_node@U?$pair@$$CBEI@std@@PEAX@std@@@std@@QEAAPEAU?$_Tree_node@U?$pair@$$CBEI@std@@PEAX@2@_K@Z
	?allocate@?$allocator@U?$_Tree_node@U?$pair@$$CBEURegister_Modification@Driver@Avian@Infineon@@@std@@PEAX@std@@@std@@QEAAPEAU?$_Tree_node@U?$pair@$$CBEURegister_Modification@Driver@Avian@Infineon@@@std@@PEAX@2@_K@Z
	?allocate@?$allocator@U?$_Tree_node@U?$pair@$$CBIV?$vector@MV?$allocator@M@std@@@std@@@std@@PEAX@std@@@std@@QEAAPEAU?$_Tree_node@U?$pair@$$CBIV?$vector@MV?$allocator@M@std@@@std@@@std@@PEAX@2@_K@Z
	?allocate@?$allocator@U?$_Tree_node@U?$pair@$$CBV?$basic_string@DU?$char_traits@D@std@@V?$allocator@D@2@@std@@UAddress@?$NamedMemory@GI@@@std@@PEAX@std@@@std@@QEAAPEAU?$_Tree_node@U?$pair@$$CBV?$basic_string@DU?$char_traits@D@std@@V?$allocator@D@2@@std@@UAddress@?$NamedMemory@GI@@@std@@PEAX@2@_K@Z
	?allocate@?$allocator@UStateInfo@StateSequence@TimingModel@Avian@Infineon@@@std@@QEAAPEAUStateInfo@StateSequence@TimingModel@Avian@Infineon@@_K@Z
	?allocate@?$allocator@U_Container_proxy@std@@@std@@QEAAPEAU_Container_proxy@2@_K@Z
	?allocate@DataSettingsBgtRadar_t@@QEAAXG@Z
	?append@?$basic_string@DU?$char_traits@D@std@@V?$allocator@D@2@@std@@QEAAAEAV12@AEBV12@@Z
	?append@?$basic_string@DU?$char_traits@D@std@@V?$allocator@D@2@@std@@QEAAAEAV12@QEBD@Z
	?append@?$basic_string@DU?$char_traits@D@std@@V?$allocator@D@2@@std@@QEAAAEAV12@QEBD_K@Z
	?apply_update@RegisterSet@HW@Avian@Infineon@@QEAAXAEBV1234@@Z
	?assign@?$_Narrow_char_traits@DH@std@@SAPEADQEAD_KD@Z
	?assign@?$_Narrow_char_traits@DH@std@@SAXAEADAEBD@Z
	?assign@?$basic_string@DU?$char_traits@D@std@@V?$allocator@D@2@@std@@QEAAAEAV12@QEBD@Z
	?assign@?$basic_string@DU?$char_traits@D@std@@V?$allocator@D@2@@std@@QEAAAEAV12@QEBD_K@Z
	?at@?$map@EIU?$less@E@std@@V?$allocator@U?$pair@$$CBEI@std@@@2@@std@@QEBAAEBIAEBE@Z
	?at@?$map@EURegister_Modification@Driver@Avian@Infineon@@U?$less@E@std@@V?$allocator@U?$pair@$$CBEURegister_Modification@Driver@Avian@Infineon@@@std@@@6@@std@@QEBAAEBURegister_Modification@Driver@Avian@Infineon@@AEBE@Z
	?back@?$array@I$0BG@@std@@QEAAAEAIXZ
	?back@?$vector@UStateInfo@StateSequence@TimingModel@Avian@Infineon@@V?$allocator@UStateInfo@StateSequence@TimingModel@Avian@Infineon@@@std@@@std@@QEAAAEAUStateInfo@StateSequence@TimingModel@Avian@Infineon@@XZ
	?begin@?$array@E$0BIA@@std@@QEAA?AV?$_Array_iterator@E$0BIA@@2@XZ
	?begin@?$array@I$01@std@@QEAA?AV?$_Array_iterator@I$01@2@XZ
	?begin@?$initializer_list@U?$pair@$$CBV?$basic_string@DU?$char_traits@D@std@@V?$allocator@D@2@@std@@UAddress@?$NamedMemory@GI@@@std@@@std@@QEBAPEBU?$pair@$$CBV?$basic_string@DU?$char_traits@D@std@@V?$allocator@D@2@@std@@UAddress@?$NamedMemory@GI@@@2@XZ
	?begin@?$list@UTimer@ModelBGT60TRxxC@TimingModel@Avian@Infineon@@V?$allocator@UTimer@ModelBGT60TRxxC@TimingModel@Avian@Infineon@@@std@@@std@@QEAA?AV?$_List_iterator@V?$_List_val@U?$_List_simple_types@UTimer@ModelBGT60TRxxC@TimingModel@Avian@Infineon@@@std@@@std@@@2@XZ
	?begin@?$vector@IV?$allocator@I@std@@@std@@QEAA?AV?$_Vector_iterator@V?$_Vector_val@U?$_Simple_types@I@std@@@std@@@2@XZ
	?begin@?$vector@UStateInfo@StateSequence@TimingModel@Avian@Infineon@@V?$allocator@UStateInfo@StateSequence@TimingModel@Avian@Infineon@@@std@@@std@@QEAA?AV?$_Vector_iterator@V?$_Vector_val@U?$_Simple_types@UStateInfo@StateSequence@TimingModel@Avian@Infineon@@@std@@@std@@@2@XZ
	?c_str@?$basic_string@DU?$char_traits@D@std@@V?$allocator@D@2@@std@@QEBAPEBDXZ
	?capacity@?$vector@IV?$allocator@I@std@@@std@@QEBA_KXZ
	?capacity@?$vector@UStateInfo@StateSequence@TimingModel@Avian@Infineon@@V?$allocator@UStateInfo@StateSequence@TimingModel@Avian@Infineon@@@std@@@std@@QEBA_KXZ
	?capture_rx_signals@Continuous_Wave_Controller@Avian@Infineon@@QEAA?AV?$map@IV?$vector@MV?$allocator@M@std@@@std@@U?$less@I@2@V?$allocator@U?$pair@$$CBIV?$vector@MV?$allocator@M@std@@@std@@@std@@@2@@std@@XZ
	?check_error@Avian@Infineon@@YAXW4Error@Driver@12@@Z
	?check_fifo_overflow@Driver@Avian@Infineon@@QEAA?AW4Error@123@PEAVIControlPort@HW@23@@Z
	?check_power_sens_timing@Driver@Avian@Infineon@@AEAA?AW4Error@123@XZ
	?check_shape_enabled@Parameter_Extractor@Avian@Infineon@@AEBAXE@Z
	?check_temperature_sens_timing@Driver@Avian@Infineon@@AEAA?AW4Error@123@XZ
	?clear@?$_Tree@V?$_Tmap_traits@EIU?$less@E@std@@V?$allocator@U?$pair@$$CBEI@std@@@2@$0A@@std@@@std@@QEAAXXZ
	?clear@?$_Tree@V?$_Tmap_traits@EURegister_Modification@Driver@Avian@Infineon@@U?$less@E@std@@V?$allocator@U?$pair@$$CBEURegister_Modification@Driver@Avian@Infineon@@@std@@@6@$0A@@std@@@std@@QEAAXXZ
	?clear_all_register_modifications@Driver@Avian@Infineon@@QEAA?AW4Error@123@XZ
	?code@EException@@UEBAHXZ
	?compare@?$_Narrow_char_traits@DH@std@@SAHQEBD0_K@Z
	?compare@?$basic_string@DU?$char_traits@D@std@@V?$allocator@D@2@@std@@QEBAHAEBV12@@Z
	?copy@?$_Char_traits@DH@std@@SAPEADQEADQEBD_K@Z
	?count@?$_Tree@V?$_Tmap_traits@EIU?$less@E@std@@V?$allocator@U?$pair@$$CBEI@std@@@2@$0A@@std@@@std@@QEBA_KAEBE@Z
	?count@?$_Tree@V?$_Tmap_traits@EURegister_Modification@Driver@Avian@Infineon@@U?$less@E@std@@V?$allocator@U?$pair@$$CBEURegister_Modification@Driver@Avian@Infineon@@@std@@@6@$0A@@std@@@std@@QEBA_KAEBE@Z
	?count@?$bitset@$03@std@@QEBA_KXZ
	?count@?$duration@NU?$ratio@$00$00@std@@@chrono@std@@QEBANXZ
	?count@?$duration@NU?$ratio@$00$0DLJKMKAA@@std@@@chrono@std@@QEBANXZ
	?count@?$duration@_JU?$ratio@$00$00@std@@@chrono@std@@QEBA_JXZ
	?count@?$duration@_JU?$ratio@$00$0DLJKMKAA@@std@@@chrono@std@@QEBA_JXZ
	?count@?$duration@_JU?$ratio@$00$0DOI@@std@@@chrono@std@@QEBA_JXZ
	?count@?$duration@_JU?$ratio@$00$0JIJGIA@@std@@@chrono@std@@QEBA_JXZ
	?count@?$duration@_JU?$ratio@$00$0PECEA@@std@@@chrono@std@@QEBA_JXZ
	?count_antennas@Driver@Avian@Infineon@@CAEE@Z
	?create_driver@Driver@Avian@Infineon@@SA?AV?$unique_ptr@VDriver@Avian@Infineon@@U?$default_delete@VDriver@Avian@Infineon@@@std@@@std@@AEAVIControlPort@HW@23@@Z
	?cycles_from_100ps@Value_Conversion@Avian@Infineon@@YA_K_KI@Z
	?cycles_to_100ps@Value_Conversion@Avian@Infineon@@YA_K_KI@Z
	?data@?$array@E$0BIA@@std@@QEAAPEAEXZ
	?data@?$array@I$01@std@@QEAAPEAIXZ
	?data@?$array@I$03@std@@QEAAPEAIXZ
	?data@?$array@I$07@std@@QEAAPEAIXZ
	?data@?$array@I$0BG@@std@@QEAAPEAIXZ
	?data@?$basic_string@DU?$char_traits@D@std@@V?$allocator@D@2@@std@@QEBAPEBDXZ
	?data@?$basic_string_view@DU?$char_traits@D@std@@@std@@QEBAPEBDXZ
	?data@?$vector@GV?$allocator@G@std@@@std@@QEAAPEAGXZ
	?data@?$vector@IV?$allocator@I@std@@@std@@QEAAPEAIXZ
	?deallocate@?$_Default_allocator_traits@V?$allocator@U?$_List_node@UTimer@ModelBGT60TRxxC@TimingModel@Avian@Infineon@@PEAX@std@@@std@@@std@@SAXAEAV?$allocator@U?$_List_node@UTimer@ModelBGT60TRxxC@TimingModel@Avian@Infineon@@PEAX@std@@@2@QEAU?$_List_node@UTimer@ModelBGT60TRxxC@TimingModel@Avian@Infineon@@PEAX@2@_K@Z
	?deallocate@?$_Default_allocator_traits@V?$allocator@U?$_Tree_node@U?$pair@$$CBEI@std@@PEAX@std@@@std@@@std@@SAXAEAV?$allocator@U?$_Tree_node@U?$pair@$$CBEI@std@@PEAX@std@@@2@QEAU?$_Tree_node@U?$pair@$$CBEI@std@@PEAX@2@_K@Z
	?deallocate@?$_Default_allocator_traits@V?$allocator@U?$_Tree_node@U?$pair@$$CBEURegister_Modification@Driver@Avian@Infineon@@@std@@PEAX@std@@@std@@@std@@SAXAEAV?$allocator@U?$_Tree_node@U?$pair@$$CBEURegister_Modification@Driver@Avian@Infineon@@@std@@PEAX@std@@@2@QEAU?$_Tree_node@U?$pair@$$CBEURegister_Modification@Driver@Avian@Infineon@@@std@@PEAX@2@_K@Z
	?deallocate@?$_Default_allocator_traits@V?$allocator@U?$_Tree_node@U?$pair@$$CBIV?$vector@MV?$allocator@M@std@@@std@@@std@@PEAX@std@@@std@@@std@@SAXAEAV?$allocator@U?$_Tree_node@U?$pair@$$CBIV?$vector@MV?$allocator@M@std@@@std@@@std@@PEAX@std@@@2@QEAU?$_Tree_node@U?$pair@$$CBIV?$vector@MV?$allocator@M@std@@@std@@@std@@PEAX@2@_K@Z
	?deallocate@?$_Default_allocator_traits@V?$allocator@U?$_Tree_node@U?$pair@$$CBV?$basic_string@DU?$char_traits@D@std@@V?$allocator@D@2@@std@@UAddress@?$NamedMemory@GI@@@std@@PEAX@std@@@std@@@std@@SAXAEAV?$allocator@U?$_Tree_node@U?$pair@$$CBV?$basic_string@DU?$char_traits@D@std@@V?$allocator@D@2@@std@@UAddress@?$NamedMemory@GI@@@std@@PEAX@std@@@2@QEAU?$_Tree_node@U?$pair@$$CBV?$basic_string@DU?$char_traits@D@std@@V?$allocator@D@2@@std@@UAddress@?$NamedMemory@GI@@@std@@PEAX@2@_K@Z
	?deallocate@?$_Default_allocator_traits@V?$allocator@U_Container_proxy@std@@@std@@@std@@SAXAEAV?$allocator@U_Container_proxy@std@@@2@QEAU_Container_proxy@2@_K@Z
	?deallocate@?$allocator@D@std@@QEAAXQEAD_K@Z
	?deallocate@?$allocator@G@std@@QEAAXQEAG_K@Z
	?deallocate@?$allocator@I@std@@QEAAXQEAI_K@Z
	?deallocate@?$allocator@M@std@@QEAAXQEAM_K@Z
	?deallocate@?$allocator@U?$_List_node@UTimer@ModelBGT60TRxxC@TimingModel@Avian@Infineon@@PEAX@std@@@std@@QEAAXQEAU?$_List_node@UTimer@ModelBGT60TRxxC@TimingModel@Avian@Infineon@@PEAX@2@_K@Z
	?deallocate@?$allocator@U?$_Tree_node@U?$pair@$$CBEI@std@@PEAX@std@@@std@@QEAAXQEAU?$_Tree_node@U?$pair@$$CBEI@std@@PEAX@2@_K@Z
	?deallocate@?$allocator@U?$_Tree_node@U?$pair@$$CBEURegister_Modification@Driver@Avian@Infineon@@@std@@PEAX@std@@@std@@QEAAXQEAU?$_Tree_node@U?$pair@$$CBEURegister_Modification@Driver@Avian@Infineon@@@std@@PEAX@2@_K@Z
	?deallocate@?$allocator@U?$_Tree_node@U?$pair@$$CBIV?$vector@MV?$allocator@M@std@@@std@@@std@@PEAX@std@@@std@@QEAAXQEAU?$_Tree_node@U?$pair@$$CBIV?$vector@MV?$allocator@M@std@@@std@@@std@@PEAX@2@_K@Z
	?deallocate@?$allocator@U?$_Tree_node@U?$pair@$$CBV?$basic_string@DU?$char_traits@D@std@@V?$allocator@D@2@@std@@UAddress@?$NamedMemory@GI@@@std@@PEAX@std@@@std@@QEAAXQEAU?$_Tree_node@U?$pair@$$CBV?$basic_string@DU?$char_traits@D@std@@V?$allocator@D@2@@std@@UAddress@?$NamedMemory@GI@@@std@@PEAX@2@_K@Z
	?deallocate@?$allocator@UStateInfo@StateSequence@TimingModel@Avian@Infineon@@@std@@QEAAXQEAUStateInfo@StateSequence@TimingModel@Avian@Infineon@@_K@Z
	?dec@std@@YAAEAVios_base@1@AEAV21@@Z
	?detect_device_type@Avian@Infineon@@YA?AW4Device_Type@12@I@Z
	?detect_reference_clock@Avian@Infineon@@YA_NAEAVBoardInstance@@AEAVDriver@12@@Z
	?detect_type_and_clock@Parameter_Extractor@Avian@Infineon@@AEAAXXZ
	?dump_registers@Driver@Avian@Infineon@@QEBA?AW4Error@123@PEAIPEAE@Z
	?empty@?$basic_string@DU?$char_traits@D@std@@V?$allocator@D@2@@std@@QEBA_NXZ
	?empty@?$list@UTimer@ModelBGT60TRxxC@TimingModel@Avian@Infineon@@V?$allocator@UTimer@ModelBGT60TRxxC@TimingModel@Avian@Infineon@@@std@@@std@@QEBA_NXZ
	?empty@?$vector@UStateInfo@StateSequence@TimingModel@Avian@Infineon@@V?$allocator@UStateInfo@StateSequence@TimingModel@Avian@Infineon@@@std@@@std@@QEBA_NXZ
	?enable_continuous_wave@Continuous_Wave_Controller@Avian@Infineon@@QEAAX_N@Z
	?enable_easy_mode@Driver@Avian@Infineon@@QEAA?AW4Error@123@_N@Z
	?enable_rx_antenna@Continuous_Wave_Controller@Avian@Infineon@@QEAAXI_N@Z
	?enable_tx_antenna@Continuous_Wave_Controller@Avian@Infineon@@QEAAXI_N@Z
	?end@?$_Tree@V?$_Tmap_traits@EIU?$less@E@std@@V?$allocator@U?$pair@$$CBEI@std@@@2@$0A@@std@@@std@@QEBA?AV?$_Tree_const_iterator@V?$_Tree_val@U?$_Tree_simple_types@U?$pair@$$CBEI@std@@@std@@@std@@@2@XZ
	?end@?$array@E$0BIA@@std@@QEAA?AV?$_Array_iterator@E$0BIA@@2@XZ
	?end@?$array@I$01@std@@QEAA?AV?$_Array_iterator@I$01@2@XZ
	?end@?$initializer_list@U?$pair@$$CBV?$basic_string@DU?$char_traits@D@std@@V?$allocator@D@2@@std@@UAddress@?$NamedMemory@GI@@@std@@@std@@QEBAPEBU?$pair@$$CBV?$basic_string@DU?$char_traits@D@std@@V?$allocator@D@2@@std@@UAddress@?$NamedMemory@GI@@@2@XZ
	?end@?$list@UTimer@ModelBGT60TRxxC@TimingModel@Avian@Infineon@@V?$allocator@UTimer@ModelBGT60TRxxC@TimingModel@Avian@Infineon@@@std@@@std@@QEAA?AV?$_List_iterator@V?$_List_val@U?$_List_simple_types@UTimer@ModelBGT60TRxxC@TimingModel@Avian@Infineon@@@std@@@std@@@2@XZ
	?end@?$vector@IV?$allocator@I@std@@@std@@QEAA?AV?$_Vector_iterator@V?$_Vector_val@U?$_Simple_types@I@std@@@std@@@2@XZ
	?end@?$vector@UStateInfo@StateSequence@TimingModel@Avian@Infineon@@V?$allocator@UStateInfo@StateSequence@TimingModel@Avian@Infineon@@@std@@@std@@QEAA?AV?$_Vector_iterator@V?$_Vector_val@U?$_Simple_types@UStateInfo@StateSequence@TimingModel@Avian@Infineon@@@std@@@std@@@2@XZ
	?eof@?$_Narrow_char_traits@DH@std@@SAHXZ
	?epsilon@?$numeric_limits@N@std@@SANXZ
	?eq@?$_Narrow_char_traits@DH@std@@SA_NDD@Z
	?eq_int_type@?$_Narrow_char_traits@DH@std@@SA_NHH@Z
	?erase@?$list@UTimer@ModelBGT60TRxxC@TimingModel@Avian@Infineon@@V?$allocator@UTimer@ModelBGT60TRxxC@TimingModel@Avian@Infineon@@@std@@@std@@QEAA?AV?$_List_iterator@V?$_List_val@U?$_List_simple_types@UTimer@ModelBGT60TRxxC@TimingModel@Avian@Infineon@@@std@@@std@@@2@V?$_List_const_iterator@V?$_List_val@U?$_List_simple_types@UTimer@ModelBGT60TRxxC@TimingModel@Avian@Infineon@@@std@@@std@@@2@@Z
	?exportSequenceTable@StateSequence@TimingModel@Avian@Infineon@@QEBAXAEAV?$basic_ostream@DU?$char_traits@D@std@@@std@@@Z
	?extendLastStateUntil@StateList@StateSequence@TimingModel@Avian@Infineon@@AEAAXN@Z
	?extract_power_down_config@Parameter_Extractor@Avian@Infineon@@AEBA?AUPower_Down_Configuration@23@II@Z
	?extract_update@RegisterSet@HW@Avian@Infineon@@QEBA?AV1234@AEBV1234@@Z
	?find@?$_Narrow_char_traits@DH@std@@SAPEBDQEBD_KAEBD@Z
	?find@?$_Tree@V?$_Tmap_traits@EIU?$less@E@std@@V?$allocator@U?$pair@$$CBEI@std@@@2@$0A@@std@@@std@@QEBA?AV?$_Tree_const_iterator@V?$_Tree_val@U?$_Tree_simple_types@U?$pair@$$CBEI@std@@@std@@@std@@@2@AEBE@Z
	?find@?$basic_string@DU?$char_traits@D@std@@V?$allocator@D@2@@std@@QEBA_KQEBD_K@Z
	?findSequenceStep@StateSequence@TimingModel@Avian@Infineon@@QEBA_KN@Z
	?finishSequence@StateList@StateSequence@TimingModel@Avian@Infineon@@QEAAXN@Z
	?finishShapeEndStates@ShapeGroup@StateSequence@TimingModel@Avian@Infineon@@QEAAXN@Z
	?finishShapeStates@ShapeGroup@StateSequence@TimingModel@Avian@Infineon@@QEAAXNAEBUShapeSettings@345@@Z
	?fixed@std@@YAAEAVios_base@1@AEAV21@@Z
	?fpclassify@@YAHN@Z
	?freq_to_pll@RF_Converter@Value_Conversion@Avian@Infineon@@QEAAHI@Z
	?front@?$vector@UStateInfo@StateSequence@TimingModel@Avian@Infineon@@V?$allocator@UStateInfo@StateSequence@TimingModel@Avian@Infineon@@@std@@@std@@QEAAAEAUStateInfo@StateSequence@TimingModel@Avian@Infineon@@XZ
	?generate_oscillator_measurement_signal@Avian@Infineon@@YAXAEAVIControlPort@HW@12@_K@Z
	?generate_reset_sequence@?$StrataControlPortImpl@V?$IPort@E@HW@Avian@Infineon@@@Internal@Avian@Infineon@@UEAAXXZ
	?generate_reset_sequence@?$StrataControlPortImpl@VIControlPort@HW@Avian@Infineon@@@Internal@Avian@Infineon@@UEAAXXZ
	?generate_reset_sequence@DummyPort@Avian@Infineon@@UEAAXXZ
	?get@?$_Ptr_base@VIBridge@@@std@@IEBAPEAVIBridge@@XZ
	?get@Device_Traits@Avian@Infineon@@SAAEBU123@W4Device_Type@23@@Z
	?getActiveDuration@ShapeGroup@StateSequence@TimingModel@Avian@Infineon@@QEBANXZ
	?getActiveDuration@StateList@StateSequence@TimingModel@Avian@Infineon@@QEBANXZ
	?getAssociatedBitfield@Iterator@StateSequence@TimingModel@Avian@Infineon@@QEBAAEBV?$basic_string@DU?$char_traits@D@std@@V?$allocator@D@2@@std@@XZ
	?getAssociatedBitfield@ModelBGT60TRxxC@TimingModel@Avian@Infineon@@QEBA?AV?$basic_string@DU?$char_traits@D@std@@V?$allocator@D@2@@std@@XZ
	?getAveragePower@StateList@StateSequence@TimingModel@Avian@Infineon@@QEBANXZ
	?getChirpToChirpTime@StateSequence@TimingModel@Avian@Infineon@@QEBANI@Z
	?getCurrentChirpSettings@ModelBGT60TRxxC@TimingModel@Avian@Infineon@@IEBAAEBUChirpSettings@234@XZ
	?getCurrentFrequency@ModelBGT60TRxxC@TimingModel@Avian@Infineon@@QEBANXZ
	?getCurrentShapeSettings@ModelBGT60TRxxC@TimingModel@Avian@Infineon@@IEBAAEBUShapeSettings@234@XZ
	?getDescription@Iterator@StateSequence@TimingModel@Avian@Infineon@@QEBA?AV?$basic_string@DU?$char_traits@D@std@@V?$allocator@D@2@@std@@XZ
	?getDuration@Iterator@StateSequence@TimingModel@Avian@Infineon@@QEBANXZ
	?getEndFrequency@Iterator@StateSequence@TimingModel@Avian@Infineon@@QEBANXZ
	?getEndTime@Iterator@StateSequence@TimingModel@Avian@Infineon@@QEBANXZ
	?getFifoThreshold@StateSequence@TimingModel@Avian@Infineon@@QEBAIXZ
	?getFrameDuration@StateSequence@TimingModel@Avian@Infineon@@QEBANXZ
	?getFrequencyIncrement@ModelBGT60TRxxC@TimingModel@Avian@Infineon@@QEBANXZ
	?getIBridge@BoardInstance@@QEAA?AV?$shared_ptr@VIBridge@@@std@@XZ
	?getISpi@BoardInstance@@QEAAPEAVISpi@@XZ
	?getNumSamples@ModelBGT60TRxxC@TimingModel@Avian@Infineon@@QEBAIXZ
	?getNumStates@StateSequence@TimingModel@Avian@Infineon@@QEBA_KXZ
	?getPowerConsumption@Iterator@StateSequence@TimingModel@Avian@Infineon@@QEBANXZ
	?getPowerConsumption@ModelBGT60TRxxC@TimingModel@Avian@Infineon@@QEBANW4PowerMode@234@@Z
	?getPowerConsumption@ModelBGT60TRxxC@TimingModel@Avian@Infineon@@QEBANXZ
	?getPowerMode@Iterator@StateSequence@TimingModel@Avian@Infineon@@QEBA?AW4PowerMode@345@XZ
	?getPowerMode@ModelBGT60TRxxC@TimingModel@Avian@Infineon@@QEBA?AW4PowerMode@234@XZ
	?getSetToSetTime@StateSequence@TimingModel@Avian@Infineon@@QEBANXZ
	?getShape@Iterator@StateSequence@TimingModel@Avian@Infineon@@QEBAEXZ
	?getShapeNumber@ModelBGT60TRxxC@TimingModel@Avian@Infineon@@QEBAEXZ
	?getShapeRepetition@Iterator@StateSequence@TimingModel@Avian@Infineon@@QEBAIXZ
	?getShapeRepetition@ModelBGT60TRxxC@TimingModel@Avian@Infineon@@QEBAGXZ
	?getShapeSet@Iterator@StateSequence@TimingModel@Avian@Infineon@@QEBAIXZ
	?getShapeSetRepetition@ModelBGT60TRxxC@TimingModel@Avian@Infineon@@QEBAGXZ
	?getStartFrequency@Iterator@StateSequence@TimingModel@Avian@Infineon@@QEBANXZ
	?getStartTime@Iterator@StateSequence@TimingModel@Avian@Infineon@@QEBANXZ
	?getStateDescription@ModelBGT60TRxxC@TimingModel@Avian@Infineon@@QEBA?AV?$basic_string@DU?$char_traits@D@std@@V?$allocator@D@2@@std@@XZ
	?getTotalDuration@ShapeGroup@StateSequence@TimingModel@Avian@Infineon@@QEBANXZ
	?getTotalDuration@StateList@StateSequence@TimingModel@Avian@Infineon@@QEBANXZ
	?getTotalFrequencyRange@StateSequence@TimingModel@Avian@Infineon@@QEBA?AU?$pair@NN@std@@XZ
	?getTotalTimeRange@StateSequence@TimingModel@Avian@Infineon@@QEBA?AU?$pair@NN@std@@XZ
	?getTotalWork@ShapeGroup@StateSequence@TimingModel@Avian@Infineon@@QEBANXZ
	?getTotalWork@StateList@StateSequence@TimingModel@Avian@Infineon@@QEBANXZ
	?getType@IRadarAvian@@SAGXZ
	?get_aaf_cutoff@Continuous_Wave_Controller@Avian@Infineon@@QEBAHXZ
	?get_adc_configuration@Driver@Avian@Infineon@@QEBA?AW4Error@123@PEAUAdc_Configuration@23@@Z
	?get_adc_configuration@Parameter_Extractor@Avian@Infineon@@QEBA?AUAdc_Configuration@23@XZ
	?get_adc_double_msb_time@Continuous_Wave_Controller@Avian@Infineon@@QEBA_NXZ
	?get_adc_oversampling@Continuous_Wave_Controller@Avian@Infineon@@QEBA?AW4Adc_Oversampling@23@XZ
	?get_adc_sample_time@Continuous_Wave_Controller@Avian@Infineon@@QEBA?AW4Adc_Sample_Time@23@XZ
	?get_adc_samplerate@Driver@Avian@Infineon@@QEBA?AW4Error@123@PEAI@Z
	?get_adc_tracking@Continuous_Wave_Controller@Avian@Infineon@@QEBA?AW4Adc_Tracking@23@XZ
	?get_anti_alias_filter_settings@Driver@Avian@Infineon@@QEBA?AW4Error@123@PEAUAnti_Alias_Filter_Settings@23@@Z
	?get_anti_alias_filter_settings@Parameter_Extractor@Avian@Infineon@@QEBA?AUAnti_Alias_Filter_Settings@23@E_N@Z
	?get_bandwidth_per_second@Driver@Avian@Infineon@@QEBA?AW4Error@123@PEAI@Z
	?get_baseband_configuration@Driver@Avian@Infineon@@QEBA?AW4Error@123@PEAUBaseband_Configuration@23@@Z
	?get_baseband_configuration@Parameter_Extractor@Avian@Infineon@@QEBA?AUBaseband_Configuration@23@E_N@Z
	?get_burst_prefix@Driver@Avian@Infineon@@QEBAIXZ
	?get_chirp_duration@Driver@Avian@Infineon@@QEBA?AW4Error@123@PEAI@Z
	?get_chirp_end_delay@Driver@Avian@Infineon@@QEBA?AW4Error@123@PEAI@Z
	?get_chirp_end_delay@Parameter_Extractor@Avian@Infineon@@QEBAIE_N@Z
	?get_chirp_timing@Driver@Avian@Infineon@@QEBA?AW4Error@123@PEAUChirp_Timing@23@@Z
	?get_chirp_timing@Parameter_Extractor@Avian@Infineon@@QEBA?AUChirp_Timing@23@XZ
	?get_clock_config_command@Driver@Avian@Infineon@@QEBAIXZ
	?get_clock_cycles@Scaled_Timer@Value_Conversion@Avian@Infineon@@QEBA_KXZ
	?get_clock_frequency@Parameter_Extractor@Avian@Infineon@@AEBAIXZ
	?get_configuration_sequence@RegisterSet@HW@Avian@Infineon@@QEBA?AV?$vector@IV?$allocator@I@std@@@std@@_N@Z
	?get_continuous_wave_frequency@Continuous_Wave_Controller@Avian@Infineon@@QEBANXZ
	?get_continuous_wave_frequency_range@Continuous_Wave_Controller@Avian@Infineon@@QEBA?AU?$pair@NN@std@@XZ
	?get_continuous_wave_power@Continuous_Wave_Controller@Avian@Infineon@@QEBAIXZ
	?get_continuous_wave_power_range@Continuous_Wave_Controller@Avian@Infineon@@QEBA?AU?$pair@II@std@@XZ
	?get_counter@Scaled_Timer@Value_Conversion@Avian@Infineon@@QEBAEXZ
	?get_deep_sleep_configuration@Driver@Avian@Infineon@@QEBA?AW4Error@123@PEAUPower_Down_Configuration@23@@Z
	?get_deep_sleep_configuration@Parameter_Extractor@Avian@Infineon@@QEBA?AUPower_Down_Configuration@23@XZ
	?get_deleter@?$unique_ptr@VDriver@Avian@Infineon@@U?$default_delete@VDriver@Avian@Infineon@@@std@@@std@@QEAAAEAU?$default_delete@VDriver@Avian@Infineon@@@2@XZ
	?get_device_configuration@Driver@Avian@Infineon@@QEBA?AVRegisterSet@HW@23@XZ
	?get_device_id@Driver@Avian@Infineon@@QEBA?AW4Error@123@PEA_K@Z
	?get_device_info@Driver@Avian@Infineon@@QEBA?AW4Error@123@PEAUDevice_Info@23@@Z
	?get_device_type@Continuous_Wave_Controller@Avian@Infineon@@QEBA?AW4Device_Type@23@XZ
	?get_device_type@Driver@Avian@Infineon@@QEBA?AW4Device_Type@23@XZ
	?get_device_type@Parameter_Extractor@Avian@Infineon@@QEBA?AW4Device_Type@23@XZ
	?get_driver@Continuous_Wave_Controller@Avian@Infineon@@QEAAAEBVDriver@23@XZ
	?get_duty_cycle_correction@Driver@Avian@Infineon@@QEBA?AW4Error@123@PEAUDuty_Cycle_Correction_Settings@23@@Z
	?get_duty_cycle_correction@Parameter_Extractor@Avian@Infineon@@QEBA?AUDuty_Cycle_Correction_Settings@23@XZ
	?get_error_code_description@Avian@Infineon@@YA?AV?$basic_string_view@DU?$char_traits@D@std@@@std@@W4Error@Driver@12@@Z
	?get_fifo_power_mode@Driver@Avian@Infineon@@QEBA?AW4Error@123@PEAW4Fifo_Power_Mode@23@@Z
	?get_fifo_power_mode@Parameter_Extractor@Avian@Infineon@@QEBA?AW4Fifo_Power_Mode@23@XZ
	?get_fmcw_configuration@Driver@Avian@Infineon@@QEBA?AW4Error@123@PEAUFmcw_Configuration@23@@Z
	?get_fmcw_configuration@Parameter_Extractor@Avian@Infineon@@QEBA?AUFmcw_Configuration@23@E@Z
	?get_frame_definition@Driver@Avian@Infineon@@QEBA?AW4Error@123@PEAUFrame_Definition@23@@Z
	?get_frame_definition@Parameter_Extractor@Avian@Infineon@@QEBA?AUFrame_Definition@23@XZ
	?get_frame_format@Driver@Avian@Infineon@@QEBA?AW4Error@123@PEAUFrame_Format@23@@Z
	?get_frame_format@Parameter_Extractor@Avian@Infineon@@QEBA?AUFrame_Format@23@E_N@Z
	?get_frame_info@Driver@Avian@Infineon@@QEBAXPEAUFrame_Info@23@@Z
	?get_frequency_range@Driver@Avian@Infineon@@AEBAXPEAI0@Z
	?get_hp_cutoff@Continuous_Wave_Controller@Avian@Infineon@@QEBAHXZ
	?get_hp_gain@Continuous_Wave_Controller@Avian@Infineon@@QEBA?AW4Hp_Gain@23@XZ
	?get_idle_configuration@Driver@Avian@Infineon@@QEBA?AW4Error@123@PEAUPower_Down_Configuration@23@@Z
	?get_idle_configuration@Parameter_Extractor@Avian@Infineon@@QEBA?AUPower_Down_Configuration@23@XZ
	?get_lib_version@Avian@Infineon@@YA?AULib_Version@12@XZ
	?get_lo_doubler_output_power@Driver@Avian@Infineon@@QEBA?AW4Error@123@PEAW4Lo_Doubler_Output_Power@23@@Z
	?get_madc_acquisition_cycles@Driver@Avian@Infineon@@CAGPEBUAdc_Configuration@23@@Z
	?get_max_sampling_rate@Avian@Infineon@@YAMW4Adc_Sample_Time@12@W4Adc_Tracking@12@_NW4Adc_Oversampling@12@M@Z
	?get_min_frame_interval@Driver@Avian@Infineon@@QEBA?AW4Error@123@PEAI@Z
	?get_min_sampling_rate@Avian@Infineon@@YAMM@Z
	?get_num_samples@Parameter_Extractor@Avian@Infineon@@AEBAIE_N@Z
	?get_number_of_rx_antennas@Continuous_Wave_Controller@Avian@Infineon@@QEBAIXZ
	?get_number_of_samples@Continuous_Wave_Controller@Avian@Infineon@@QEBAIXZ
	?get_number_of_samples_range@Continuous_Wave_Controller@Avian@Infineon@@QEBA?AU?$pair@II@std@@XZ
	?get_number_of_tx_antennas@Continuous_Wave_Controller@Avian@Infineon@@QEBAIXZ
	?get_oscillator_configuration@Driver@Avian@Infineon@@QEBA?AW4Error@123@PEAUOscillator_Configuration@23@@Z
	?get_pad_driver_mode@Driver@Avian@Infineon@@QEBA?AW4Error@123@PEAW4Pad_Driver_Mode@23@@Z
	?get_pad_driver_mode@Parameter_Extractor@Avian@Infineon@@QEBA?AW4Pad_Driver_Mode@23@XZ
	?get_power_sens_delay@Driver@Avian@Infineon@@QEBA?AW4Error@123@PEAI@Z
	?get_power_sens_delay@Parameter_Extractor@Avian@Infineon@@QEBAIXZ
	?get_power_sens_enabled@Driver@Avian@Infineon@@QEBA?AW4Error@123@PEA_N@Z
	?get_power_sens_enabled@Parameter_Extractor@Avian@Infineon@@QEBA_NXZ
	?get_properties@?$StrataControlPortImpl@V?$IPort@E@HW@Avian@Infineon@@@Internal@Avian@Infineon@@UEBAAEBUProperties@IControlPort@HW@34@XZ
	?get_properties@?$StrataControlPortImpl@VIControlPort@HW@Avian@Infineon@@@Internal@Avian@Infineon@@UEBAAEBUProperties@IControlPort@HW@34@XZ
	?get_properties@DummyPort@Avian@Infineon@@UEBAAEBUProperties@IControlPort@HW@23@XZ
	?get_pullup_resistor_configuration@Driver@Avian@Infineon@@QEBA?AW4Error@123@PEAUPullup_Resistor_Configuration@23@@Z
	?get_pullup_resistor_configuration@Parameter_Extractor@Avian@Infineon@@QEBA?AUPullup_Resistor_Configuration@23@XZ
	?get_recently_measured_temperature@Sensor_Meter@Avian@Infineon@@QEAAMXZ
	?get_reference_clock@Parameter_Extractor@Avian@Infineon@@QEBA?AW4Reference_Clock_Frequency@23@XZ
	?get_reference_clock_frequency@Driver@Avian@Infineon@@QEBA?AW4Error@123@PEAW4Reference_Clock_Frequency@23@@Z
	?get_register@Parameter_Extractor@Avian@Infineon@@AEBAIEPEBD@Z
	?get_register_map@Avian@Infineon@@YA?AV?$map@V?$basic_string@DU?$char_traits@D@std@@V?$allocator@D@2@@std@@UAddress@?$NamedMemory@GI@@U?$less@V?$basic_string@DU?$char_traits@D@std@@V?$allocator@D@2@@std@@@2@V?$allocator@U?$pair@$$CBV?$basic_string@DU?$char_traits@D@std@@V?$allocator@D@2@@std@@UAddress@?$NamedMemory@GI@@@std@@@2@@std@@W4Device_Type@12@@Z
	?get_register_modification@Driver@Avian@Infineon@@QEBA?AW4Error@123@EPEAI0@Z
	?get_register_value@Parameter_Extractor@Avian@Infineon@@QEBAIE@Z
	?get_sampling_rate@Continuous_Wave_Controller@Avian@Infineon@@QEBAMXZ
	?get_sampling_rate_range@Continuous_Wave_Controller@Avian@Infineon@@QEBA?AU?$pair@MM@std@@XZ
	?get_selected_shape@Driver@Avian@Infineon@@QEBA?AW4Error@123@PEAEPEA_N@Z
	?get_shift@Scaled_Timer@Value_Conversion@Avian@Infineon@@QEBAEXZ
	?get_slice_size@Driver@Avian@Infineon@@QEBA?AW4Error@123@PEAG@Z
	?get_slice_size@Parameter_Extractor@Avian@Infineon@@QEBAGXZ
	?get_startup_delays@Driver@Avian@Infineon@@QEBA?AW4Error@123@PEAUStartup_Delays@23@@Z
	?get_startup_delays@Parameter_Extractor@Avian@Infineon@@QEBA?AUStartup_Delays@23@XZ
	?get_startup_timing@Driver@Avian@Infineon@@QEBA?AW4Error@123@PEAUStartup_Timing@23@@Z
	?get_startup_timing@Parameter_Extractor@Avian@Infineon@@QEBA?AUStartup_Timing@23@XZ
	?get_temperature@Driver@Avian@Infineon@@QEBA?AW4Error@123@PEAH@Z
	?get_temperature_sens_enabled@Driver@Avian@Infineon@@QEBA?AW4Error@123@PEA_N@Z
	?get_temperature_sens_enabled@Parameter_Extractor@Avian@Infineon@@QEBA_NXZ
	?get_test_signal_frequency@Continuous_Wave_Controller@Avian@Infineon@@QEBAMXZ
	?get_test_signal_frequency_range@Continuous_Wave_Controller@Avian@Infineon@@QEBA?AU?$pair@MM@std@@XZ
	?get_test_signal_generator_mode@Continuous_Wave_Controller@Avian@Infineon@@QEBA?AW4Test_Signal_Generator_Mode@123@XZ
	?get_tx_mode@Driver@Avian@Infineon@@QEBA?AW4Error@123@PEAW4Tx_Mode@23@@Z
	?get_tx_mode@Parameter_Extractor@Avian@Infineon@@QEBA?AW4Tx_Mode@23@E_N@Z
	?get_tx_power@Driver@Avian@Infineon@@QEAA?AW4Error@123@EPEAH@Z
	?get_vga_gain@Continuous_Wave_Controller@Avian@Infineon@@QEBA?AW4Vga_Gain@23@XZ
	?goToNextState@ModelBGT60TRxxC@TimingModel@Avian@Infineon@@QEAA_JXZ
	?go_to_active_state@Continuous_Wave_Controller@Avian@Infineon@@AEAA_NXZ
	?gotoStateACQ@ModelBGT60TRxxC@TimingModel@Avian@Infineon@@MEAAXAEAV?$list@UTimer@ModelBGT60TRxxC@TimingModel@Avian@Infineon@@V?$allocator@UTimer@ModelBGT60TRxxC@TimingModel@Avian@Infineon@@@std@@@std@@@Z
	?gotoStateEDD@ModelBGT60TR11D@TimingModel@Avian@Infineon@@EEAAXAEAV?$list@UTimer@ModelBGT60TRxxC@TimingModel@Avian@Infineon@@V?$allocator@UTimer@ModelBGT60TRxxC@TimingModel@Avian@Infineon@@@std@@@std@@@Z
	?gotoStateEDD@ModelBGT60TRxxC@TimingModel@Avian@Infineon@@MEAAXAEAV?$list@UTimer@ModelBGT60TRxxC@TimingModel@Avian@Infineon@@V?$allocator@UTimer@ModelBGT60TRxxC@TimingModel@Avian@Infineon@@@std@@@std@@@Z
	?gotoStateEDU@ModelBGT60TR11D@TimingModel@Avian@Infineon@@EEAAXAEAV?$list@UTimer@ModelBGT60TRxxC@TimingModel@Avian@Infineon@@V?$allocator@UTimer@ModelBGT60TRxxC@TimingModel@Avian@Infineon@@@std@@@std@@@Z
	?gotoStateEDU@ModelBGT60TRxxC@TimingModel@Avian@Infineon@@MEAAXAEAV?$list@UTimer@ModelBGT60TRxxC@TimingModel@Avian@Infineon@@V?$allocator@UTimer@ModelBGT60TRxxC@TimingModel@Avian@Infineon@@@std@@@std@@@Z
	?gotoStateFED@ModelBGT60TRxxC@TimingModel@Avian@Infineon@@MEAAXAEAV?$list@UTimer@ModelBGT60TRxxC@TimingModel@Avian@Infineon@@V?$allocator@UTimer@ModelBGT60TRxxC@TimingModel@Avian@Infineon@@@std@@@std@@@Z
	?gotoStateINIT0@ModelBGT60TRxxC@TimingModel@Avian@Infineon@@MEAAXAEAV?$list@UTimer@ModelBGT60TRxxC@TimingModel@Avian@Infineon@@V?$allocator@UTimer@ModelBGT60TRxxC@TimingModel@Avian@Infineon@@@std@@@std@@@Z
	?gotoStateINIT0@ModelBGT60TRxxD@TimingModel@Avian@Infineon@@EEAAXAEAV?$list@UTimer@ModelBGT60TRxxC@TimingModel@Avian@Infineon@@V?$allocator@UTimer@ModelBGT60TRxxC@TimingModel@Avian@Infineon@@@std@@@std@@@Z
	?gotoStateINIT1@ModelBGT60TRxxC@TimingModel@Avian@Infineon@@MEAAXAEAV?$list@UTimer@ModelBGT60TRxxC@TimingModel@Avian@Infineon@@V?$allocator@UTimer@ModelBGT60TRxxC@TimingModel@Avian@Infineon@@@std@@@std@@@Z
	?gotoStateINIT1@ModelBGT60TRxxD@TimingModel@Avian@Infineon@@EEAAXAEAV?$list@UTimer@ModelBGT60TRxxC@TimingModel@Avian@Infineon@@V?$allocator@UTimer@ModelBGT60TRxxC@TimingModel@Avian@Infineon@@@std@@@std@@@Z
	?gotoStatePAEN@ModelBGT60TR11D@TimingModel@Avian@Infineon@@EEAAXAEAV?$list@UTimer@ModelBGT60TRxxC@TimingModel@Avian@Infineon@@V?$allocator@UTimer@ModelBGT60TRxxC@TimingModel@Avian@Infineon@@@std@@@std@@@Z
	?gotoStatePAEN@ModelBGT60TRxxC@TimingModel@Avian@Infineon@@MEAAXAEAV?$list@UTimer@ModelBGT60TRxxC@TimingModel@Avian@Infineon@@V?$allocator@UTimer@ModelBGT60TRxxC@TimingModel@Avian@Infineon@@@std@@@std@@@Z
	?gotoStateSED@ModelBGT60TRxxC@TimingModel@Avian@Infineon@@MEAAXAEAV?$list@UTimer@ModelBGT60TRxxC@TimingModel@Avian@Infineon@@V?$allocator@UTimer@ModelBGT60TRxxC@TimingModel@Avian@Infineon@@@std@@@std@@@Z
	?gotoStateSSTART@ModelBGT60TR11D@TimingModel@Avian@Infineon@@EEAAXAEAV?$list@UTimer@ModelBGT60TRxxC@TimingModel@Avian@Infineon@@V?$allocator@UTimer@ModelBGT60TRxxC@TimingModel@Avian@Infineon@@@std@@@std@@@Z
	?gotoStateSSTART@ModelBGT60TRxxC@TimingModel@Avian@Infineon@@MEAAXAEAV?$list@UTimer@ModelBGT60TRxxC@TimingModel@Avian@Infineon@@V?$allocator@UTimer@ModelBGT60TRxxC@TimingModel@Avian@Infineon@@@std@@@std@@@Z
	?gotoStateWU@ModelBGT60TRxxC@TimingModel@Avian@Infineon@@MEAAXAEAV?$list@UTimer@ModelBGT60TRxxC@TimingModel@Avian@Infineon@@V?$allocator@UTimer@ModelBGT60TRxxC@TimingModel@Avian@Infineon@@@std@@@std@@@Z
	?gotoStateWU@ModelBGT60TRxxD@TimingModel@Avian@Infineon@@EEAAXAEAV?$list@UTimer@ModelBGT60TRxxC@TimingModel@Avian@Infineon@@V?$allocator@UTimer@ModelBGT60TRxxC@TimingModel@Avian@Infineon@@@std@@@std@@@Z
	?gotoStateWaitForPll@ModelBGT60TR11D@TimingModel@Avian@Infineon@@EEAAXAEAV?$list@UTimer@ModelBGT60TRxxC@TimingModel@Avian@Infineon@@V?$allocator@UTimer@ModelBGT60TRxxC@TimingModel@Avian@Infineon@@@std@@@std@@@Z
	?gotoStateWaitForPll@ModelBGT60TRxxC@TimingModel@Avian@Infineon@@MEAAXAEAV?$list@UTimer@ModelBGT60TRxxC@TimingModel@Avian@Infineon@@V?$allocator@UTimer@ModelBGT60TRxxC@TimingModel@Avian@Infineon@@@std@@@std@@@Z
	?hasEnded@Iterator@StateSequence@TimingModel@Avian@Infineon@@QEBA_NXZ
	?hasFrameFinished@ModelBGT60TRxxC@TimingModel@Avian@Infineon@@QEBA_NXZ
	?has_register@Parameter_Extractor@Avian@Infineon@@QEBA_NE@Z
	?hex@std@@YAAEAVios_base@1@AEAV21@@Z
	?infinity@?$numeric_limits@M@std@@SAMXZ
	?initialize@DataSettingsBgtRadar_t@@QEAAXQEAY01$$CBGGG@Z
	?initialize_reference_clock@Avian@Infineon@@YAXAEAVIControlPort@HW@12@I@Z
	?insert@?$_Tree@V?$_Tmap_traits@V?$basic_string@DU?$char_traits@D@std@@V?$allocator@D@2@@std@@UAddress@?$NamedMemory@GI@@U?$less@V?$basic_string@DU?$char_traits@D@std@@V?$allocator@D@2@@std@@@2@V?$allocator@U?$pair@$$CBV?$basic_string@DU?$char_traits@D@std@@V?$allocator@D@2@@std@@UAddress@?$NamedMemory@GI@@@std@@@2@$0A@@std@@@std@@QEAAXV?$initializer_list@U?$pair@$$CBV?$basic_string@DU?$char_traits@D@std@@V?$allocator@D@2@@std@@UAddress@?$NamedMemory@GI@@@std@@@2@@Z
	?insert@?$basic_string@DU?$char_traits@D@std@@V?$allocator@D@2@@std@@QEAAAEAV12@_KQEBD0@Z
	?insert@?$basic_string@DU?$char_traits@D@std@@V?$allocator@D@2@@std@@QEAAAEAV12@_KQEBD@Z
	?insertShapeHeader@ModelBGT60TRxxC@TimingModel@Avian@Infineon@@MEAAXAEAV?$list@UTimer@ModelBGT60TRxxC@TimingModel@Avian@Infineon@@V?$allocator@UTimer@ModelBGT60TRxxC@TimingModel@Avian@Infineon@@@std@@@std@@@Z
	?isShapeEndDelay@ModelBGT60TRxxC@TimingModel@Avian@Infineon@@QEBA_NXZ
	?isStartOfShape@Iterator@StateSequence@TimingModel@Avian@Infineon@@QEBA_NXZ
	?isStartOfShape@ModelBGT60TRxxC@TimingModel@Avian@Infineon@@QEBA_NXZ
	?isVirtualState@ModelBGT60TRxxC@TimingModel@Avian@Infineon@@QEBA_NXZ
	?is_automatic_frame_trigger_running@Driver@Avian@Infineon@@QEBA_NXZ
	?is_continuous_wave_enabled@Continuous_Wave_Controller@Avian@Infineon@@QEBA_NXZ
	?is_defined@RegisterSet@HW@Avian@Infineon@@QEBA_NE@Z
	?is_in_easy_mode@Driver@Avian@Infineon@@QEBA?AW4Error@123@PEA_N@Z
	?is_rx_antenna_enabled@Continuous_Wave_Controller@Avian@Infineon@@QEBA_NI@Z
	?is_second_chirp@Parameter_Extractor@Avian@Infineon@@AEBA_NE_N@Z
	?is_tx_antenna_enabled@Continuous_Wave_Controller@Avian@Infineon@@QEBA_NI@Z
	?key_comp@?$_Tree@V?$_Tmap_traits@EIU?$less@E@std@@V?$allocator@U?$pair@$$CBEI@std@@@2@$0A@@std@@@std@@QEBA?AU?$less@E@2@XZ
	?key_comp@?$_Tree@V?$_Tmap_traits@IV?$vector@MV?$allocator@M@std@@@std@@U?$less@I@2@V?$allocator@U?$pair@$$CBIV?$vector@MV?$allocator@M@std@@@std@@@std@@@2@$0A@@std@@@std@@QEBA?AU?$less@I@2@XZ
	?key_comp@?$_Tree@V?$_Tmap_traits@V?$basic_string@DU?$char_traits@D@std@@V?$allocator@D@2@@std@@UAddress@?$NamedMemory@GI@@U?$less@V?$basic_string@DU?$char_traits@D@std@@V?$allocator@D@2@@std@@@2@V?$allocator@U?$pair@$$CBV?$basic_string@DU?$char_traits@D@std@@V?$allocator@D@2@@std@@UAddress@?$NamedMemory@GI@@@std@@@2@$0A@@std@@@std@@QEBA?AU?$less@V?$basic_string@DU?$char_traits@D@std@@V?$allocator@D@2@@std@@@2@XZ
	?left@std@@YAAEAVios_base@1@AEAV21@@Z
	?length@?$_Narrow_char_traits@DH@std@@SA_KQEBD@Z
	?lock@_Mutex_base@std@@QEAAXXZ
	?lround@@YAJM@Z
	?make_description@DriverError@Avian@Infineon@@AEAA?AV?$basic_string@DU?$char_traits@D@std@@V?$allocator@D@2@@std@@W4Error@Driver@23@@Z
	?max@?$numeric_limits@_J@std@@SA_JXZ
	?max@?$numeric_limits@_K@std@@SA_KXZ
	?max_size@?$_Default_allocator_traits@V?$allocator@D@std@@@std@@SA_KAEBV?$allocator@D@2@@Z
	?max_size@?$_Default_allocator_traits@V?$allocator@G@std@@@std@@SA_KAEBV?$allocator@G@2@@Z
	?max_size@?$_Default_allocator_traits@V?$allocator@I@std@@@std@@SA_KAEBV?$allocator@I@2@@Z
	?max_size@?$_Default_allocator_traits@V?$allocator@M@std@@@std@@SA_KAEBV?$allocator@M@2@@Z
	?max_size@?$_Default_allocator_traits@V?$allocator@U?$_List_node@UTimer@ModelBGT60TRxxC@TimingModel@Avian@Infineon@@PEAX@std@@@std@@@std@@SA_KAEBV?$allocator@U?$_List_node@UTimer@ModelBGT60TRxxC@TimingModel@Avian@Infineon@@PEAX@std@@@2@@Z
	?max_size@?$_Default_allocator_traits@V?$allocator@U?$_Tree_node@U?$pair@$$CBEI@std@@PEAX@std@@@std@@@std@@SA_KAEBV?$allocator@U?$_Tree_node@U?$pair@$$CBEI@std@@PEAX@std@@@2@@Z
	?max_size@?$_Default_allocator_traits@V?$allocator@U?$_Tree_node@U?$pair@$$CBEURegister_Modification@Driver@Avian@Infineon@@@std@@PEAX@std@@@std@@@std@@SA_KAEBV?$allocator@U?$_Tree_node@U?$pair@$$CBEURegister_Modification@Driver@Avian@Infineon@@@std@@PEAX@std@@@2@@Z
	?max_size@?$_Default_allocator_traits@V?$allocator@U?$_Tree_node@U?$pair@$$CBIV?$vector@MV?$allocator@M@std@@@std@@@std@@PEAX@std@@@std@@@std@@SA_KAEBV?$allocator@U?$_Tree_node@U?$pair@$$CBIV?$vector@MV?$allocator@M@std@@@std@@@std@@PEAX@std@@@2@@Z
	?max_size@?$_Default_allocator_traits@V?$allocator@U?$_Tree_node@U?$pair@$$CBV?$basic_string@DU?$char_traits@D@std@@V?$allocator@D@2@@std@@UAddress@?$NamedMemory@GI@@@std@@PEAX@std@@@std@@@std@@SA_KAEBV?$allocator@U?$_Tree_node@U?$pair@$$CBV?$basic_string@DU?$char_traits@D@std@@V?$allocator@D@2@@std@@UAddress@?$NamedMemory@GI@@@std@@PEAX@std@@@2@@Z
	?max_size@?$_Default_allocator_traits@V?$allocator@UStateInfo@StateSequence@TimingModel@Avian@Infineon@@@std@@@std@@SA_KAEBV?$allocator@UStateInfo@StateSequence@TimingModel@Avian@Infineon@@@2@@Z
	?max_size@?$_Tree@V?$_Tmap_traits@EIU?$less@E@std@@V?$allocator@U?$pair@$$CBEI@std@@@2@$0A@@std@@@std@@QEBA_KXZ
	?max_size@?$_Tree@V?$_Tmap_traits@EURegister_Modification@Driver@Avian@Infineon@@U?$less@E@std@@V?$allocator@U?$pair@$$CBEURegister_Modification@Driver@Avian@Infineon@@@std@@@6@$0A@@std@@@std@@QEBA_KXZ
	?max_size@?$_Tree@V?$_Tmap_traits@IV?$vector@MV?$allocator@M@std@@@std@@U?$less@I@2@V?$allocator@U?$pair@$$CBIV?$vector@MV?$allocator@M@std@@@std@@@std@@@2@$0A@@std@@@std@@QEBA_KXZ
	?max_size@?$_Tree@V?$_Tmap_traits@V?$basic_string@DU?$char_traits@D@std@@V?$allocator@D@2@@std@@UAddress@?$NamedMemory@GI@@U?$less@V?$basic_string@DU?$char_traits@D@std@@V?$allocator@D@2@@std@@@2@V?$allocator@U?$pair@$$CBV?$basic_string@DU?$char_traits@D@std@@V?$allocator@D@2@@std@@UAddress@?$NamedMemory@GI@@@std@@@2@$0A@@std@@@std@@QEBA_KXZ
	?max_size@?$basic_string@DU?$char_traits@D@std@@V?$allocator@D@2@@std@@QEBA_KXZ
	?max_size@?$list@UTimer@ModelBGT60TRxxC@TimingModel@Avian@Infineon@@V?$allocator@UTimer@ModelBGT60TRxxC@TimingModel@Avian@Infineon@@@std@@@std@@QEBA_KXZ
	?max_size@?$vector@GV?$allocator@G@std@@@std@@QEBA_KXZ
	?max_size@?$vector@IV?$allocator@I@std@@@std@@QEBA_KXZ
	?max_size@?$vector@MV?$allocator@M@std@@@std@@QEBA_KXZ
	?max_size@?$vector@UStateInfo@StateSequence@TimingModel@Avian@Infineon@@V?$allocator@UStateInfo@StateSequence@TimingModel@Avian@Infineon@@@std@@@std@@QEBA_KXZ
	?measure_madc_voltage@Sensor_Meter@Avian@Infineon@@AEAAMW4Madc_Channel@123@@Z
	?measure_sadc_voltage@Sensor_Meter@Avian@Infineon@@AEAAME@Z
	?measure_temperature@Continuous_Wave_Controller@Avian@Infineon@@QEAAMXZ
	?measure_temperature@Sensor_Meter@Avian@Infineon@@QEAAMXZ
	?measure_tx_power@Continuous_Wave_Controller@Avian@Infineon@@QEAAMIW4Power_Detector@123@@Z
	?measure_tx_power@Sensor_Meter@Avian@Infineon@@QEAAMI@Z
	?move@?$_Char_traits@DH@std@@SAPEADQEADQEBD_K@Z
	?mutex@?$unique_lock@Vmutex@std@@@std@@QEBAPEAV02@XZ
	?not_eof@?$_Narrow_char_traits@DH@std@@SAHH@Z
	?notify_one@condition_variable@std@@QEAAXXZ
	?notify_trigger@Driver@Avian@Infineon@@QEAAXXZ
	?now@steady_clock@chrono@std@@SA?AV?$time_point@Usteady_clock@chrono@std@@V?$duration@_JU?$ratio@$00$0DLJKMKAA@@std@@@23@@23@XZ
	?onNewFrame@StrataPort@Avian@Infineon@@UEAAXPEAVIFrame@@@Z
	?overflow@?$basic_stringbuf@DU?$char_traits@D@std@@V?$allocator@D@2@@std@@MEAAHH@Z
	?owns_lock@?$unique_lock@Vmutex@std@@@std@@QEBA_NXZ
	?pbackfail@?$basic_stringbuf@DU?$char_traits@D@std@@V?$allocator@D@2@@std@@MEAAHH@Z
	?pll_to_freq@RF_Converter@Value_Conversion@Avian@Infineon@@QEAAIH@Z
	?pointer_to@?$pointer_traits@PEAD@std@@SAPEADAEAD@Z
	?pointer_to@?$pointer_traits@PEAU?$pair@$$CBIV?$vector@MV?$allocator@M@std@@@std@@@std@@@std@@SAPEAU?$pair@$$CBIV?$vector@MV?$allocator@M@std@@@std@@@2@AEAU32@@Z
	?pointer_to@?$pointer_traits@PEAUTimer@ModelBGT60TRxxC@TimingModel@Avian@Infineon@@@std@@SAPEAUTimer@ModelBGT60TRxxC@TimingModel@Avian@Infineon@@AEAU34567@@Z
	?program_registers_ccr@Driver@Avian@Infineon@@AEAAXXZ
	?program_registers_channel_set@Driver@Avian@Infineon@@AEAAXEE@Z
	?program_registers_clock@Driver@Avian@Infineon@@AEAAXXZ
	?program_registers_fifo@Driver@Avian@Infineon@@AEAAXXZ
	?program_registers_frame@Driver@Avian@Infineon@@AEAAXXZ
	?program_registers_madc@Driver@Avian@Infineon@@AEAAXXZ
	?program_registers_main@Driver@Avian@Infineon@@AEAAXXZ
	?program_registers_power@Driver@Avian@Infineon@@AEAAX_N@Z
	?program_registers_sadc@Driver@Avian@Infineon@@AEAAXXZ
	?program_registers_shape@Driver@Avian@Infineon@@AEAAXE@Z
	?push_back@?$vector@IV?$allocator@I@std@@@std@@QEAAX$$QEAI@Z
	?push_back@?$vector@IV?$allocator@I@std@@@std@@QEAAXAEBI@Z
	?push_back@?$vector@UStateInfo@StateSequence@TimingModel@Avian@Infineon@@V?$allocator@UStateInfo@StateSequence@TimingModel@Avian@Infineon@@@std@@@std@@QEAAXAEBUStateInfo@StateSequence@TimingModel@Avian@Infineon@@@Z
	?quiet_NaN@?$numeric_limits@N@std@@SANXZ
	?read_device_type@Avian@Infineon@@YA?AW4Device_Type@12@AEAVIControlPort@HW@12@@Z
	?read_irq_level@?$StrataControlPortImpl@V?$IPort@E@HW@Avian@Infineon@@@Internal@Avian@Infineon@@UEAA_NXZ
	?read_irq_level@?$StrataControlPortImpl@VIControlPort@HW@Avian@Infineon@@@Internal@Avian@Infineon@@UEAA_NXZ
	?read_irq_level@DummyPort@Avian@Infineon@@UEAA_NXZ
	?register_error_callback@StrataPort@Avian@Infineon@@QEAAXV?$function@$$A6AXPEAVStrataPort@Avian@Infineon@@I@Z@std@@@Z
	?release@?$unique_ptr@VDriver@Avian@Infineon@@U?$default_delete@VDriver@Avian@Infineon@@@std@@@std@@QEAAPEAVDriver@Avian@Infineon@@XZ
	?release@?$unique_ptr@VModelBGT60TR11D@TimingModel@Avian@Infineon@@U?$default_delete@VModelBGT60TR11D@TimingModel@Avian@Infineon@@@std@@@std@@QEAAPEAVModelBGT60TR11D@TimingModel@Avian@Infineon@@XZ
	?release@?$unique_ptr@VModelBGT60TRxxC@TimingModel@Avian@Infineon@@U?$default_delete@VModelBGT60TRxxC@TimingModel@Avian@Infineon@@@std@@@std@@QEAAPEAVModelBGT60TRxxC@TimingModel@Avian@Infineon@@XZ
	?release@?$unique_ptr@VModelBGT60TRxxD@TimingModel@Avian@Infineon@@U?$default_delete@VModelBGT60TRxxD@TimingModel@Avian@Infineon@@@std@@@std@@QEAAPEAVModelBGT60TRxxD@TimingModel@Avian@Infineon@@XZ
	?release@?$unique_ptr@VSequenceParameters11D@TimingModel@Avian@Infineon@@U?$default_delete@VSequenceParameters11D@TimingModel@Avian@Infineon@@@std@@@std@@QEAAPEAVSequenceParameters11D@TimingModel@Avian@Infineon@@XZ
	?release@?$unique_ptr@VSequenceParameters@TimingModel@Avian@Infineon@@U?$default_delete@VSequenceParameters@TimingModel@Avian@Infineon@@@std@@@std@@QEAAPEAVSequenceParameters@TimingModel@Avian@Infineon@@XZ
	?release@?$unique_ptr@VSequenceParametersD@TimingModel@Avian@Infineon@@U?$default_delete@VSequenceParametersD@TimingModel@Avian@Infineon@@@std@@@std@@QEAAPEAVSequenceParametersD@TimingModel@Avian@Infineon@@XZ
	?repeat_chip_setup@Driver@Avian@Infineon@@QEAA?AW4Error@123@XZ
	?reserve@?$vector@IV?$allocator@I@std@@@std@@QEAAX_K@Z
	?reset@?$unique_ptr@VModelBGT60TRxxC@TimingModel@Avian@Infineon@@U?$default_delete@VModelBGT60TRxxC@TimingModel@Avian@Infineon@@@std@@@std@@QEAAXPEAVModelBGT60TRxxC@TimingModel@Avian@Infineon@@@Z
	?reset@?$unique_ptr@VSequenceParameters@TimingModel@Avian@Infineon@@U?$default_delete@VSequenceParameters@TimingModel@Avian@Infineon@@@std@@@std@@QEAAXPEAVSequenceParameters@TimingModel@Avian@Infineon@@@Z
	?reset@Driver@Avian@Infineon@@AEAAX_N@Z
	?right@std@@YAAEAVios_base@1@AEAV21@@Z
	?seekoff@?$basic_stringbuf@DU?$char_traits@D@std@@V?$allocator@D@2@@std@@MEAA?AV?$fpos@U_Mbstatet@@@2@_JHH@Z
	?seekpos@?$basic_stringbuf@DU?$char_traits@D@std@@V?$allocator@D@2@@std@@MEAA?AV?$fpos@U_Mbstatet@@@2@V32@H@Z
	?select_on_container_copy_construction@?$_Default_allocator_traits@V?$allocator@D@std@@@std@@SA?AV?$allocator@D@2@AEBV32@@Z
	?select_on_container_copy_construction@?$_Default_allocator_traits@V?$allocator@U?$_Tree_node@U?$pair@$$CBEI@std@@PEAX@std@@@std@@@std@@SA?AV?$allocator@U?$_Tree_node@U?$pair@$$CBEI@std@@PEAX@std@@@2@AEBV32@@Z
	?select_on_container_copy_construction@?$_Default_allocator_traits@V?$allocator@U?$_Tree_node@U?$pair@$$CBV?$basic_string@DU?$char_traits@D@std@@V?$allocator@D@2@@std@@UAddress@?$NamedMemory@GI@@@std@@PEAX@std@@@std@@@std@@SA?AV?$allocator@U?$_Tree_node@U?$pair@$$CBV?$basic_string@DU?$char_traits@D@std@@V?$allocator@D@2@@std@@UAddress@?$NamedMemory@GI@@@std@@PEAX@std@@@2@AEBV32@@Z
	?select_shape_to_configure@Driver@Avian@Infineon@@QEAA?AW4Error@123@E_N@Z
	?send_commands@?$StrataControlPortImpl@V?$IPort@E@HW@Avian@Infineon@@@Internal@Avian@Infineon@@UEAAXPEBI_KPEAI@Z
	?send_commands@?$StrataControlPortImpl@VIControlPort@HW@Avian@Infineon@@@Internal@Avian@Infineon@@UEAAXPEBI_KPEAI@Z
	?send_commands@DummyPort@Avian@Infineon@@UEAAXPEBI_KPEAI@Z
	?send_to_device@RegisterSet@HW@Avian@Infineon@@QEBAXAEAVIControlPort@234@_N@Z
	?set@RegisterSet@HW@Avian@Infineon@@QEAAXEI@Z
	?set@RegisterSet@HW@Avian@Infineon@@QEAAXI@Z
	?set_aaf_cutoff@Continuous_Wave_Controller@Avian@Infineon@@QEAAXH@Z
	?set_adc_configuration@Driver@Avian@Infineon@@QEAA?AW4Error@123@PEBUAdc_Configuration@23@@Z
	?set_adc_double_msb_time@Continuous_Wave_Controller@Avian@Infineon@@QEAAX_N@Z
	?set_adc_oversampling@Continuous_Wave_Controller@Avian@Infineon@@QEAAXW4Adc_Oversampling@23@@Z
	?set_adc_sample_time@Continuous_Wave_Controller@Avian@Infineon@@QEAAXW4Adc_Sample_Time@23@@Z
	?set_adc_samplerate@Driver@Avian@Infineon@@QEAA?AW4Error@123@I@Z
	?set_adc_tracking@Continuous_Wave_Controller@Avian@Infineon@@QEAAXW4Adc_Tracking@23@@Z
	?set_anti_alias_filter_settings@Driver@Avian@Infineon@@QEAA?AW4Error@123@PEBUAnti_Alias_Filter_Settings@23@@Z
	?set_automatic_frame_trigger@Driver@Avian@Infineon@@QEAA?AW4Error@123@I@Z
	?set_baseband_configuration@Driver@Avian@Infineon@@QEAA?AW4Error@123@PEBUBaseband_Configuration@23@@Z
	?set_buffer@?$DataConverter@G@Avian@Infineon@@UEAAXPEAG@Z
	?set_buffer@StrataPort@Avian@Infineon@@UEAAXPEAE@Z
	?set_chirp_end_delay@Driver@Avian@Infineon@@QEAA?AW4Error@123@I@Z
	?set_chirp_timing@Driver@Avian@Infineon@@QEAA?AW4Error@123@PEBUChirp_Timing@23@@Z
	?set_continuous_wave_frequency@Continuous_Wave_Controller@Avian@Infineon@@QEAAXN@Z
	?set_continuous_wave_power@Continuous_Wave_Controller@Avian@Infineon@@QEAAXI@Z
	?set_deep_sleep_configuration@Driver@Avian@Infineon@@QEAA?AW4Error@123@PEBUPower_Down_Configuration@23@@Z
	?set_default_parameters@Driver@Avian@Infineon@@AEAAXXZ
	?set_duty_cycle_correction@Driver@Avian@Infineon@@QEAA?AW4Error@123@PEBUDuty_Cycle_Correction_Settings@23@@Z
	?set_easy_mode_buffer_size@Driver@Avian@Infineon@@QEAAXG@Z
	?set_fifo_power_mode@Driver@Avian@Infineon@@QEAA?AW4Error@123@W4Fifo_Power_Mode@23@@Z
	?set_fmcw_configuration@Driver@Avian@Infineon@@QEAA?AW4Error@123@PEBUFmcw_Configuration@23@@Z
	?set_frame_definition@Driver@Avian@Infineon@@QEAA?AW4Error@123@PEBUFrame_Definition@23@@Z
	?set_frame_format@Driver@Avian@Infineon@@QEAA?AW4Error@123@PEBUFrame_Format@23@@Z
	?set_hp_cutoff@Continuous_Wave_Controller@Avian@Infineon@@QEAAXH@Z
	?set_hp_gain@Continuous_Wave_Controller@Avian@Infineon@@QEAAXW4Hp_Gain@23@@Z
	?set_idle_configuration@Driver@Avian@Infineon@@QEAA?AW4Error@123@PEBUPower_Down_Configuration@23@@Z
	?set_lo_doubler_output_power@Driver@Avian@Infineon@@QEAA?AW4Error@123@W4Lo_Doubler_Output_Power@23@@Z
	?set_number_of_samples@Continuous_Wave_Controller@Avian@Infineon@@QEAAXI@Z
	?set_oscillator_configuration@Driver@Avian@Infineon@@QEAA?AW4Error@123@PEBUOscillator_Configuration@23@@Z
	?set_pad_driver_mode@Driver@Avian@Infineon@@QEAA?AW4Error@123@W4Pad_Driver_Mode@23@@Z
	?set_power_sens_delay@Driver@Avian@Infineon@@QEAA?AW4Error@123@I@Z
	?set_power_sens_enabled@Driver@Avian@Infineon@@QEAA?AW4Error@123@_N@Z
	?set_pullup_resistor_configuration@Driver@Avian@Infineon@@QEAA?AW4Error@123@PEBUPullup_Resistor_Configuration@23@@Z
	?set_reference_clock_frequency@Driver@Avian@Infineon@@QEAA?AW4Error@123@W4Reference_Clock_Frequency@23@@Z
	?set_register_modification@Driver@Avian@Infineon@@QEAA?AW4Error@123@EII@Z
	?set_sampling_rate@Continuous_Wave_Controller@Avian@Infineon@@QEAAXM@Z
	?set_slice_size@Driver@Avian@Infineon@@QEAA?AW4Error@123@G@Z
	?set_startup_delays@Driver@Avian@Infineon@@QEAA?AW4Error@123@PEBUStartup_Delays@23@@Z
	?set_startup_timing@Driver@Avian@Infineon@@QEAA?AW4Error@123@PEBUStartup_Timing@23@@Z
	?set_temperature_sens_enabled@Driver@Avian@Infineon@@QEAA?AW4Error@123@_N@Z
	?set_test_signal_frequency@Continuous_Wave_Controller@Avian@Infineon@@QEAAXM@Z
	?set_test_signal_generator_mode@Continuous_Wave_Controller@Avian@Infineon@@QEAAXW4Test_Signal_Generator_Mode@123@@Z
	?set_tx_mode@Driver@Avian@Infineon@@QEAA?AW4Error@123@W4Tx_Mode@23@@Z
	?set_vga_gain@Continuous_Wave_Controller@Avian@Infineon@@QEAAXW4Vga_Gain@23@@Z
	?setup_easy_mode_frame@Driver@Avian@Infineon@@AEAA?AW4Error@123@PEBUFrame_Format@23@PEBUFmcw_Configuration@23@W4Tx_Mode@23@@Z
	?setup_pll_bitfields@Driver@Avian@Infineon@@AEAAXPEBUShape_Settings@123@PEAUPLL_Bitfield_Set@123@@Z
	?size@?$array@H$04@std@@QEBA_KXZ
	?size@?$array@H$06@std@@QEBA_KXZ
	?size@?$array@I$03@std@@QEBA_KXZ
	?size@?$array@I$07@std@@QEBA_KXZ
	?size@?$array@I$0BG@@std@@QEBA_KXZ
	?size@?$basic_string@DU?$char_traits@D@std@@V?$allocator@D@2@@std@@QEBA_KXZ
	?size@?$basic_string_view@DU?$char_traits@D@std@@@std@@QEBA_KXZ
	?size@?$vector@IV?$allocator@I@std@@@std@@QEBA_KXZ
	?size@?$vector@UStateInfo@StateSequence@TimingModel@Avian@Infineon@@V?$allocator@UStateInfo@StateSequence@TimingModel@Avian@Infineon@@@std@@@std@@QEBA_KXZ
	?splice@?$list@UTimer@ModelBGT60TRxxC@TimingModel@Avian@Infineon@@V?$allocator@UTimer@ModelBGT60TRxxC@TimingModel@Avian@Infineon@@@std@@@std@@QEAAXV?$_List_const_iterator@V?$_List_val@U?$_List_simple_types@UTimer@ModelBGT60TRxxC@TimingModel@Avian@Infineon@@@std@@@std@@@2@$$QEAV12@@Z
	?splice@?$list@UTimer@ModelBGT60TRxxC@TimingModel@Avian@Infineon@@V?$allocator@UTimer@ModelBGT60TRxxC@TimingModel@Avian@Infineon@@@std@@@std@@QEAAXV?$_List_const_iterator@V?$_List_val@U?$_List_simple_types@UTimer@ModelBGT60TRxxC@TimingModel@Avian@Infineon@@@std@@@std@@@2@AEAV12@@Z
	?startFrame@ModelBGT60TRxxC@TimingModel@Avian@Infineon@@QEAAXXZ
	?startPllFastDownRamp@ModelBGT60TRxxC@TimingModel@Avian@Infineon@@IEAAXAEAV?$list@UTimer@ModelBGT60TRxxC@TimingModel@Avian@Infineon@@V?$allocator@UTimer@ModelBGT60TRxxC@TimingModel@Avian@Infineon@@@std@@@std@@@Z
	?startPllLocking@ModelBGT60TRxxC@TimingModel@Avian@Infineon@@IEAAXAEAV?$list@UTimer@ModelBGT60TRxxC@TimingModel@Avian@Infineon@@V?$allocator@UTimer@ModelBGT60TRxxC@TimingModel@Avian@Infineon@@@std@@@std@@@Z
	?startPllPostDelay@ModelBGT60TRxxC@TimingModel@Avian@Infineon@@IEAAXAEAV?$list@UTimer@ModelBGT60TRxxC@TimingModel@Avian@Infineon@@V?$allocator@UTimer@ModelBGT60TRxxC@TimingModel@Avian@Infineon@@@std@@@std@@@Z
	?startPllPreDelay@ModelBGT60TRxxC@TimingModel@Avian@Infineon@@IEAAXAEAV?$list@UTimer@ModelBGT60TRxxC@TimingModel@Avian@Infineon@@V?$allocator@UTimer@ModelBGT60TRxxC@TimingModel@Avian@Infineon@@@std@@@std@@@Z
	?startPllRamp@ModelBGT60TRxxC@TimingModel@Avian@Infineon@@IEAAXAEAV?$list@UTimer@ModelBGT60TRxxC@TimingModel@Avian@Infineon@@V?$allocator@UTimer@ModelBGT60TRxxC@TimingModel@Avian@Infineon@@@std@@@std@@@Z
	?startPowerMeasurement@ModelBGT60TR11D@TimingModel@Avian@Infineon@@AEAAXAEAV?$list@UTimer@ModelBGT60TRxxC@TimingModel@Avian@Infineon@@V?$allocator@UTimer@ModelBGT60TRxxC@TimingModel@Avian@Infineon@@@std@@@std@@@Z
	?startTemperatureMeasurement@ModelBGT60TR11D@TimingModel@Avian@Infineon@@AEAAXAEAV?$list@UTimer@ModelBGT60TRxxC@TimingModel@Avian@Infineon@@V?$allocator@UTimer@ModelBGT60TRxxC@TimingModel@Avian@Infineon@@@std@@@std@@@Z
	?start_reader@?$DataConverter@G@Avian@Infineon@@UEAAXI_KV?$function@$$A6AXI@Z@std@@@Z
	?start_reader@StrataPort@Avian@Infineon@@UEAAXI_KV?$function@$$A6AXI@Z@std@@@Z
	?stop_and_reset_sequence@Driver@Avian@Infineon@@QEAA?AW4Error@123@XZ
	?stop_reader@?$DataConverter@G@Avian@Infineon@@UEAAXXZ
	?stop_reader@StrataPort@Avian@Infineon@@UEAAXXZ
	?str@?$basic_ostringstream@DU?$char_traits@D@std@@V?$allocator@D@2@@std@@QEBA?AV?$basic_string@DU?$char_traits@D@std@@V?$allocator@D@2@@2@XZ
	?str@?$basic_stringbuf@DU?$char_traits@D@std@@V?$allocator@D@2@@std@@QEBA?AV?$basic_string@DU?$char_traits@D@std@@V?$allocator@D@2@@2@XZ
	?str@?$basic_stringstream@DU?$char_traits@D@std@@V?$allocator@D@2@@std@@QEBA?AV?$basic_string@DU?$char_traits@D@std@@V?$allocator@D@2@@2@XZ
	?swap@?$function@$$A6AXI@Z@std@@QEAAXAEAV12@@Z
	?swap@?$function@$$A6AXPEAVStrataPort@Avian@Infineon@@I@Z@std@@QEAAXAEAV12@@Z
	?test_fifo_memory@HwTest@Avian@Infineon@@YA_NAEAVIControlPort@HW@23@I@Z
	?test_spi_connection@HwTest@Avian@Infineon@@YA_NAEAV?$IPort@E@HW@23@I@Z
	?time_since_epoch@?$time_point@Usteady_clock@chrono@std@@V?$duration@_JU?$ratio@$00$0DLJKMKAA@@std@@@23@@chrono@std@@QEBA?AV?$duration@_JU?$ratio@$00$0DLJKMKAA@@std@@@23@XZ
	?to_100ps@Parameter_Extractor@Avian@Infineon@@AEBA_KII@Z
	?to_char_type@?$_Narrow_char_traits@DH@std@@SADH@Z
	?to_int_type@?$_Narrow_char_traits@DH@std@@SAHD@Z
	?to_string@std@@YA?AV?$basic_string@DU?$char_traits@D@std@@V?$allocator@D@2@@1@H@Z
	?to_ulong@?$bitset@$03@std@@QEBAKXZ
	?underflow@?$basic_stringbuf@DU?$char_traits@D@std@@V?$allocator@D@2@@std@@MEAAHXZ
	?unlock@_Mutex_base@std@@QEAAXXZ
	?updateStatePointer@Iterator@StateSequence@TimingModel@Avian@Infineon@@AEAAXXZ
	?updateStatistics@StateList@StateSequence@TimingModel@Avian@Infineon@@AEAAXXZ
	?update_spi_register_set@Driver@Avian@Infineon@@AEAAXXZ
	?wake_up_and_measure_temperature@Sensor_Meter@Avian@Infineon@@QEAAMAEBVDriver@23@@Z
	?wake_up_for_temperature_measurement@Sensor_Meter@Avian@Infineon@@AEAAXAEBVDriver@23@@Z
	?what@EException@@UEBAPEBDXZ
	?what@exception@std@@UEBAPEBDXZ
	wmemcpy
